
timesync:     file format elf32-littlearm


Disassembly of section .init:

00010874 <_init>:
   10874:	e92d4008 	push	{r3, lr}
   10878:	eb00005c 	bl	109f0 <call_weak_fn>
   1087c:	e8bd8008 	pop	{r3, pc}

Disassembly of section .plt:

00010880 <open@plt-0x14>:
   10880:	e52de004 	push	{lr}		; (str lr, [sp, #-4]!)
   10884:	e59fe004 	ldr	lr, [pc, #4]	; 10890 <_init+0x1c>
   10888:	e08fe00e 	add	lr, pc, lr
   1088c:	e5bef008 	ldr	pc, [lr, #8]!
   10890:	00012884 	.word	0x00012884

00010894 <open@plt>:
   10894:	e28fc600 	add	ip, pc, #0, 12
   10898:	e28cca12 	add	ip, ip, #73728	; 0x12000
   1089c:	e5bcf884 	ldr	pc, [ip, #2180]!	; 0x884

000108a0 <mmap@plt>:
   108a0:	e28fc600 	add	ip, pc, #0, 12
   108a4:	e28cca12 	add	ip, ip, #73728	; 0x12000
   108a8:	e5bcf87c 	ldr	pc, [ip, #2172]!	; 0x87c

000108ac <abort@plt>:
   108ac:	e28fc600 	add	ip, pc, #0, 12
   108b0:	e28cca12 	add	ip, ip, #73728	; 0x12000
   108b4:	e5bcf874 	ldr	pc, [ip, #2164]!	; 0x874

000108b8 <memcmp@plt>:
   108b8:	e28fc600 	add	ip, pc, #0, 12
   108bc:	e28cca12 	add	ip, ip, #73728	; 0x12000
   108c0:	e5bcf86c 	ldr	pc, [ip, #2156]!	; 0x86c

000108c4 <__libc_start_main@plt>:
   108c4:	e28fc600 	add	ip, pc, #0, 12
   108c8:	e28cca12 	add	ip, ip, #73728	; 0x12000
   108cc:	e5bcf864 	ldr	pc, [ip, #2148]!	; 0x864

000108d0 <clock_gettime@plt>:
   108d0:	e28fc600 	add	ip, pc, #0, 12
   108d4:	e28cca12 	add	ip, ip, #73728	; 0x12000
   108d8:	e5bcf85c 	ldr	pc, [ip, #2140]!	; 0x85c

000108dc <__gmon_start__@plt>:
   108dc:	e28fc600 	add	ip, pc, #0, 12
   108e0:	e28cca12 	add	ip, ip, #73728	; 0x12000
   108e4:	e5bcf854 	ldr	pc, [ip, #2132]!	; 0x854

000108e8 <putchar@plt>:
   108e8:	e28fc600 	add	ip, pc, #0, 12
   108ec:	e28cca12 	add	ip, ip, #73728	; 0x12000
   108f0:	e5bcf84c 	ldr	pc, [ip, #2124]!	; 0x84c

000108f4 <calloc@plt>:
   108f4:	e28fc600 	add	ip, pc, #0, 12
   108f8:	e28cca12 	add	ip, ip, #73728	; 0x12000
   108fc:	e5bcf844 	ldr	pc, [ip, #2116]!	; 0x844

00010900 <memset@plt>:
   10900:	e28fc600 	add	ip, pc, #0, 12
   10904:	e28cca12 	add	ip, ip, #73728	; 0x12000
   10908:	e5bcf83c 	ldr	pc, [ip, #2108]!	; 0x83c

0001090c <perror@plt>:
   1090c:	e28fc600 	add	ip, pc, #0, 12
   10910:	e28cca12 	add	ip, ip, #73728	; 0x12000
   10914:	e5bcf834 	ldr	pc, [ip, #2100]!	; 0x834

00010918 <__assert_fail@plt>:
   10918:	e28fc600 	add	ip, pc, #0, 12
   1091c:	e28cca12 	add	ip, ip, #73728	; 0x12000
   10920:	e5bcf82c 	ldr	pc, [ip, #2092]!	; 0x82c

00010924 <free@plt>:
   10924:	e28fc600 	add	ip, pc, #0, 12
   10928:	e28cca12 	add	ip, ip, #73728	; 0x12000
   1092c:	e5bcf824 	ldr	pc, [ip, #2084]!	; 0x824

00010930 <fflush@plt>:
   10930:	e28fc600 	add	ip, pc, #0, 12
   10934:	e28cca12 	add	ip, ip, #73728	; 0x12000
   10938:	e5bcf81c 	ldr	pc, [ip, #2076]!	; 0x81c

0001093c <ioctl@plt>:
   1093c:	e28fc600 	add	ip, pc, #0, 12
   10940:	e28cca12 	add	ip, ip, #73728	; 0x12000
   10944:	e5bcf814 	ldr	pc, [ip, #2068]!	; 0x814

00010948 <__ubsan_handle_add_overflow@plt>:
   10948:	e28fc600 	add	ip, pc, #0, 12
   1094c:	e28cca12 	add	ip, ip, #73728	; 0x12000
   10950:	e5bcf80c 	ldr	pc, [ip, #2060]!	; 0x80c

00010954 <printf@plt>:
   10954:	e28fc600 	add	ip, pc, #0, 12
   10958:	e28cca12 	add	ip, ip, #73728	; 0x12000
   1095c:	e5bcf804 	ldr	pc, [ip, #2052]!	; 0x804

00010960 <__ubsan_handle_shift_out_of_bounds@plt>:
   10960:	e28fc600 	add	ip, pc, #0, 12
   10964:	e28cca12 	add	ip, ip, #73728	; 0x12000
   10968:	e5bcf7fc 	ldr	pc, [ip, #2044]!	; 0x7fc

0001096c <close@plt>:
   1096c:	e28fc600 	add	ip, pc, #0, 12
   10970:	e28cca12 	add	ip, ip, #73728	; 0x12000
   10974:	e5bcf7f4 	ldr	pc, [ip, #2036]!	; 0x7f4

00010978 <malloc@plt>:
   10978:	e28fc600 	add	ip, pc, #0, 12
   1097c:	e28cca12 	add	ip, ip, #73728	; 0x12000
   10980:	e5bcf7ec 	ldr	pc, [ip, #2028]!	; 0x7ec

00010984 <__ubsan_handle_type_mismatch@plt>:
   10984:	e28fc600 	add	ip, pc, #0, 12
   10988:	e28cca12 	add	ip, ip, #73728	; 0x12000
   1098c:	e5bcf7e4 	ldr	pc, [ip, #2020]!	; 0x7e4

00010990 <puts@plt>:
   10990:	e28fc600 	add	ip, pc, #0, 12
   10994:	e28cca12 	add	ip, ip, #73728	; 0x12000
   10998:	e5bcf7dc 	ldr	pc, [ip, #2012]!	; 0x7dc

0001099c <nanosleep@plt>:
   1099c:	e28fc600 	add	ip, pc, #0, 12
   109a0:	e28cca12 	add	ip, ip, #73728	; 0x12000
   109a4:	e5bcf7d4 	ldr	pc, [ip, #2004]!	; 0x7d4

000109a8 <strcmp@plt>:
   109a8:	e28fc600 	add	ip, pc, #0, 12
   109ac:	e28cca12 	add	ip, ip, #73728	; 0x12000
   109b0:	e5bcf7cc 	ldr	pc, [ip, #1996]!	; 0x7cc

000109b4 <exit@plt>:
   109b4:	e28fc600 	add	ip, pc, #0, 12
   109b8:	e28cca12 	add	ip, ip, #73728	; 0x12000
   109bc:	e5bcf7c4 	ldr	pc, [ip, #1988]!	; 0x7c4

Disassembly of section .text:

000109c0 <_start>:
   109c0:	f04f 0b00 	mov.w	fp, #0
   109c4:	f04f 0e00 	mov.w	lr, #0
   109c8:	bc02      	pop	{r1}
   109ca:	466a      	mov	r2, sp
   109cc:	b404      	push	{r2}
   109ce:	b401      	push	{r0}
   109d0:	f8df c010 	ldr.w	ip, [pc, #16]	; 109e4 <_start+0x24>
   109d4:	f84d cd04 	str.w	ip, [sp, #-4]!
   109d8:	4803      	ldr	r0, [pc, #12]	; (109e8 <_start+0x28>)
   109da:	4b04      	ldr	r3, [pc, #16]	; (109ec <_start+0x2c>)
   109dc:	f7ff ef72 	blx	108c4 <__libc_start_main@plt>
   109e0:	f7ff ef64 	blx	108ac <abort@plt>
   109e4:	0001266d 	.word	0x0001266d
   109e8:	000124dd 	.word	0x000124dd
   109ec:	0001262d 	.word	0x0001262d

000109f0 <call_weak_fn>:
   109f0:	e59f3014 	ldr	r3, [pc, #20]	; 10a0c <call_weak_fn+0x1c>
   109f4:	e59f2014 	ldr	r2, [pc, #20]	; 10a10 <call_weak_fn+0x20>
   109f8:	e08f3003 	add	r3, pc, r3
   109fc:	e7932002 	ldr	r2, [r3, r2]
   10a00:	e3520000 	cmp	r2, #0
   10a04:	012fff1e 	bxeq	lr
   10a08:	eaffffb3 	b	108dc <__gmon_start__@plt>
   10a0c:	00012714 	.word	0x00012714
   10a10:	00000070 	.word	0x00000070

00010a14 <deregister_tm_clones>:
   10a14:	4b07      	ldr	r3, [pc, #28]	; (10a34 <deregister_tm_clones+0x20>)
   10a16:	f644 20ec 	movw	r0, #19180	; 0x4aec
   10a1a:	f2c0 0002 	movt	r0, #2
   10a1e:	1a1b      	subs	r3, r3, r0
   10a20:	2b06      	cmp	r3, #6
   10a22:	d905      	bls.n	10a30 <deregister_tm_clones+0x1c>
   10a24:	f240 0300 	movw	r3, #0
   10a28:	f2c0 0300 	movt	r3, #0
   10a2c:	b103      	cbz	r3, 10a30 <deregister_tm_clones+0x1c>
   10a2e:	4718      	bx	r3
   10a30:	4770      	bx	lr
   10a32:	bf00      	nop
   10a34:	00024aef 	.word	0x00024aef

00010a38 <register_tm_clones>:
   10a38:	f644 23ec 	movw	r3, #19180	; 0x4aec
   10a3c:	f644 20ec 	movw	r0, #19180	; 0x4aec
   10a40:	f2c0 0302 	movt	r3, #2
   10a44:	f2c0 0002 	movt	r0, #2
   10a48:	1a19      	subs	r1, r3, r0
   10a4a:	1089      	asrs	r1, r1, #2
   10a4c:	eb01 71d1 	add.w	r1, r1, r1, lsr #31
   10a50:	1049      	asrs	r1, r1, #1
   10a52:	d005      	beq.n	10a60 <register_tm_clones+0x28>
   10a54:	f240 0300 	movw	r3, #0
   10a58:	f2c0 0300 	movt	r3, #0
   10a5c:	b103      	cbz	r3, 10a60 <register_tm_clones+0x28>
   10a5e:	4718      	bx	r3
   10a60:	4770      	bx	lr
   10a62:	bf00      	nop

00010a64 <__do_global_dtors_aux>:
   10a64:	b510      	push	{r4, lr}
   10a66:	f644 24f0 	movw	r4, #19184	; 0x4af0
   10a6a:	f2c0 0402 	movt	r4, #2
   10a6e:	7823      	ldrb	r3, [r4, #0]
   10a70:	b91b      	cbnz	r3, 10a7a <__do_global_dtors_aux+0x16>
   10a72:	f7ff ffcf 	bl	10a14 <deregister_tm_clones>
   10a76:	2301      	movs	r3, #1
   10a78:	7023      	strb	r3, [r4, #0]
   10a7a:	bd10      	pop	{r4, pc}

00010a7c <frame_dummy>:
   10a7c:	f243 0008 	movw	r0, #12296	; 0x3008
   10a80:	b508      	push	{r3, lr}
   10a82:	f2c0 0002 	movt	r0, #2
   10a86:	6803      	ldr	r3, [r0, #0]
   10a88:	b913      	cbnz	r3, 10a90 <frame_dummy+0x14>
   10a8a:	e8bd 4008 	ldmia.w	sp!, {r3, lr}
   10a8e:	e7d3      	b.n	10a38 <register_tm_clones>
   10a90:	f240 0300 	movw	r3, #0
   10a94:	f2c0 0300 	movt	r3, #0
   10a98:	2b00      	cmp	r3, #0
   10a9a:	d0f6      	beq.n	10a8a <frame_dummy+0xe>
   10a9c:	4798      	blx	r3
   10a9e:	e7f4      	b.n	10a8a <frame_dummy+0xe>

00010aa0 <setup_io>:
void setup_io();
 
 
 
void setup_io()
{
   10aa0:	b580      	push	{r7, lr}
   10aa2:	b082      	sub	sp, #8
   10aa4:	af02      	add	r7, sp, #8
   /* open /dev/mem */
   if ((mem_fd = open("/dev/mem", O_RDWR|O_SYNC) ) < 0) {
   10aa6:	f242 60c8 	movw	r0, #9928	; 0x26c8
   10aaa:	f2c0 0001 	movt	r0, #1
   10aae:	f241 0102 	movw	r1, #4098	; 0x1002
   10ab2:	f2c0 0110 	movt	r1, #16
   10ab6:	f7ff eeee 	blx	10894 <open@plt>
   10aba:	4602      	mov	r2, r0
   10abc:	f644 23f4 	movw	r3, #19188	; 0x4af4
   10ac0:	f2c0 0302 	movt	r3, #2
   10ac4:	601a      	str	r2, [r3, #0]
   10ac6:	f644 23f4 	movw	r3, #19188	; 0x4af4
   10aca:	f2c0 0302 	movt	r3, #2
   10ace:	681b      	ldr	r3, [r3, #0]
   10ad0:	2b00      	cmp	r3, #0
   10ad2:	da09      	bge.n	10ae8 <setup_io+0x48>
      printf("can't open /dev/mem \n");
   10ad4:	f242 60d4 	movw	r0, #9940	; 0x26d4
   10ad8:	f2c0 0001 	movt	r0, #1
   10adc:	f7ff ef58 	blx	10990 <puts@plt>
      exit(-1);
   10ae0:	f04f 30ff 	mov.w	r0, #4294967295
   10ae4:	f7ff ef66 	blx	109b4 <exit@plt>
   }
 
   /* mmap GPIO */
   gpio_map = mmap(
   10ae8:	f644 23f4 	movw	r3, #19188	; 0x4af4
   10aec:	f2c0 0302 	movt	r3, #2
   10af0:	681b      	ldr	r3, [r3, #0]
   10af2:	9300      	str	r3, [sp, #0]
   10af4:	2300      	movs	r3, #0
   10af6:	f6c3 7320 	movt	r3, #16160	; 0x3f20
   10afa:	9301      	str	r3, [sp, #4]
   10afc:	2000      	movs	r0, #0
   10afe:	f44f 5180 	mov.w	r1, #4096	; 0x1000
   10b02:	2203      	movs	r2, #3
   10b04:	2301      	movs	r3, #1
   10b06:	f7ff eecc 	blx	108a0 <mmap@plt>
   10b0a:	4602      	mov	r2, r0
   10b0c:	f644 23fc 	movw	r3, #19196	; 0x4afc
   10b10:	f2c0 0302 	movt	r3, #2
   10b14:	601a      	str	r2, [r3, #0]
      MAP_SHARED,       //Shared with other processes
      mem_fd,           //File to map
      GPIO_BASE         //Offset to GPIO peripheral
   );
 
   close(mem_fd); //No need to keep mem_fd open after mmap
   10b16:	f644 23f4 	movw	r3, #19188	; 0x4af4
   10b1a:	f2c0 0302 	movt	r3, #2
   10b1e:	681b      	ldr	r3, [r3, #0]
   10b20:	4618      	mov	r0, r3
   10b22:	f7ff ef24 	blx	1096c <close@plt>
 
   if (gpio_map == MAP_FAILED) {
   10b26:	f644 23fc 	movw	r3, #19196	; 0x4afc
   10b2a:	f2c0 0302 	movt	r3, #2
   10b2e:	681b      	ldr	r3, [r3, #0]
   10b30:	f1b3 3fff 	cmp.w	r3, #4294967295
   10b34:	d10f      	bne.n	10b56 <setup_io+0xb6>
      printf("mmap error %d\n", (int)gpio_map);//errno also set!
   10b36:	f644 23fc 	movw	r3, #19196	; 0x4afc
   10b3a:	f2c0 0302 	movt	r3, #2
   10b3e:	681b      	ldr	r3, [r3, #0]
   10b40:	f242 60ec 	movw	r0, #9964	; 0x26ec
   10b44:	f2c0 0001 	movt	r0, #1
   10b48:	4619      	mov	r1, r3
   10b4a:	f7ff ef04 	blx	10954 <printf@plt>
      exit(-1);
   10b4e:	f04f 30ff 	mov.w	r0, #4294967295
   10b52:	f7ff ef30 	blx	109b4 <exit@plt>
   }
 
   // Always use volatile pointer!
   gpio = (volatile unsigned *)gpio_map;
   10b56:	f644 23fc 	movw	r3, #19196	; 0x4afc
   10b5a:	f2c0 0302 	movt	r3, #2
   10b5e:	681a      	ldr	r2, [r3, #0]
   10b60:	f644 4300 	movw	r3, #19456	; 0x4c00
   10b64:	f2c0 0302 	movt	r3, #2
   10b68:	601a      	str	r2, [r3, #0]
 
 
} // setup_io
   10b6a:	46bd      	mov	sp, r7
   10b6c:	bd80      	pop	{r7, pc}
   10b6e:	bf00      	nop

00010b70 <open_spi>:

const char *spi_dev_name = SPI_DEVNAME;

int open_spi(const char *devname)
{
   10b70:	b580      	push	{r7, lr}
   10b72:	b084      	sub	sp, #16
   10b74:	af00      	add	r7, sp, #0
   10b76:	6078      	str	r0, [r7, #4]
    int fd = open(devname, O_RDWR);
   10b78:	6878      	ldr	r0, [r7, #4]
   10b7a:	2102      	movs	r1, #2
   10b7c:	f7ff ee8a 	blx	10894 <open@plt>
   10b80:	60f8      	str	r0, [r7, #12]
    if (fd < 0)
   10b82:	68fb      	ldr	r3, [r7, #12]
   10b84:	2b00      	cmp	r3, #0
   10b86:	da09      	bge.n	10b9c <open_spi+0x2c>
    {
        perror("Open Failed\n");
   10b88:	f242 700c 	movw	r0, #9996	; 0x270c
   10b8c:	f2c0 0001 	movt	r0, #1
   10b90:	f7ff eebc 	blx	1090c <perror@plt>
        exit(-1);
   10b94:	f04f 30ff 	mov.w	r0, #4294967295
   10b98:	f7ff ef0c 	blx	109b4 <exit@plt>
    }
    return fd;
   10b9c:	68fb      	ldr	r3, [r7, #12]
}
   10b9e:	4618      	mov	r0, r3
   10ba0:	3710      	adds	r7, #16
   10ba2:	46bd      	mov	sp, r7
   10ba4:	bd80      	pop	{r7, pc}
   10ba6:	bf00      	nop

00010ba8 <close_spi>:

int close_spi(int fd)
{
   10ba8:	b580      	push	{r7, lr}
   10baa:	b082      	sub	sp, #8
   10bac:	af00      	add	r7, sp, #0
   10bae:	6078      	str	r0, [r7, #4]
    if (close(fd))
   10bb0:	6878      	ldr	r0, [r7, #4]
   10bb2:	f7ff eedc 	blx	1096c <close@plt>
   10bb6:	4603      	mov	r3, r0
   10bb8:	2b00      	cmp	r3, #0
   10bba:	d009      	beq.n	10bd0 <close_spi+0x28>
    {
        perror("Close Failed\n");
   10bbc:	f242 701c 	movw	r0, #10012	; 0x271c
   10bc0:	f2c0 0001 	movt	r0, #1
   10bc4:	f7ff eea2 	blx	1090c <perror@plt>
        exit(-1);
   10bc8:	f04f 30ff 	mov.w	r0, #4294967295
   10bcc:	f7ff eef2 	blx	109b4 <exit@plt>
    }
    return 0;
   10bd0:	2300      	movs	r3, #0
}
   10bd2:	4618      	mov	r0, r3
   10bd4:	3708      	adds	r7, #8
   10bd6:	46bd      	mov	sp, r7
   10bd8:	bd80      	pop	{r7, pc}
   10bda:	bf00      	nop

00010bdc <default_spi_config>:

void default_spi_config(int fd)
{
   10bdc:	b580      	push	{r7, lr}
   10bde:	b084      	sub	sp, #16
   10be0:	af00      	add	r7, sp, #0
   10be2:	6078      	str	r0, [r7, #4]
    int x; 
    x = SPI_MODE_0;
   10be4:	2300      	movs	r3, #0
   10be6:	60fb      	str	r3, [r7, #12]
    if(ioctl(fd, SPI_IOC_WR_MODE, &x))
   10be8:	f107 030c 	add.w	r3, r7, #12
   10bec:	6878      	ldr	r0, [r7, #4]
   10bee:	f646 3101 	movw	r1, #27393	; 0x6b01
   10bf2:	f2c4 0101 	movt	r1, #16385	; 0x4001
   10bf6:	461a      	mov	r2, r3
   10bf8:	f7ff eea0 	blx	1093c <ioctl@plt>
   10bfc:	4603      	mov	r3, r0
   10bfe:	2b00      	cmp	r3, #0
   10c00:	d005      	beq.n	10c0e <default_spi_config+0x32>
    {
        perror("Failed to set mode to SPI_MODE_0");
   10c02:	f242 702c 	movw	r0, #10028	; 0x272c
   10c06:	f2c0 0001 	movt	r0, #1
   10c0a:	f7ff ee80 	blx	1090c <perror@plt>
    }
    x = SPI_SPEED;
   10c0e:	f644 3340 	movw	r3, #19264	; 0x4b40
   10c12:	f2c0 034c 	movt	r3, #76	; 0x4c
   10c16:	60fb      	str	r3, [r7, #12]
    if(ioctl(fd, SPI_IOC_WR_MAX_SPEED_HZ, &x))
   10c18:	f107 030c 	add.w	r3, r7, #12
   10c1c:	6878      	ldr	r0, [r7, #4]
   10c1e:	f646 3104 	movw	r1, #27396	; 0x6b04
   10c22:	f2c4 0104 	movt	r1, #16388	; 0x4004
   10c26:	461a      	mov	r2, r3
   10c28:	f7ff ee88 	blx	1093c <ioctl@plt>
   10c2c:	4603      	mov	r3, r0
   10c2e:	2b00      	cmp	r3, #0
   10c30:	d005      	beq.n	10c3e <default_spi_config+0x62>
    {
        perror("Failed to set speed");
   10c32:	f242 7050 	movw	r0, #10064	; 0x2750
   10c36:	f2c0 0001 	movt	r0, #1
   10c3a:	f7ff ee68 	blx	1090c <perror@plt>
    }
    x = 8;  
   10c3e:	2308      	movs	r3, #8
   10c40:	60fb      	str	r3, [r7, #12]
    if(ioctl(fd, SPI_IOC_WR_BITS_PER_WORD, &x))
   10c42:	f107 030c 	add.w	r3, r7, #12
   10c46:	6878      	ldr	r0, [r7, #4]
   10c48:	f646 3103 	movw	r1, #27395	; 0x6b03
   10c4c:	f2c4 0101 	movt	r1, #16385	; 0x4001
   10c50:	461a      	mov	r2, r3
   10c52:	f7ff ee74 	blx	1093c <ioctl@plt>
   10c56:	4603      	mov	r3, r0
   10c58:	2b00      	cmp	r3, #0
   10c5a:	d006      	beq.n	10c6a <default_spi_config+0x8e>
    {
        perror("Failed to set bpw");
   10c5c:	f242 7064 	movw	r0, #10084	; 0x2764
   10c60:	f2c0 0001 	movt	r0, #1
   10c64:	f7ff ee52 	blx	1090c <perror@plt>
   10c68:	e01b      	b.n	10ca2 <default_spi_config+0xc6>
    }
    else if(ioctl(fd, SPI_IOC_RD_BITS_PER_WORD, &x))
   10c6a:	f107 030c 	add.w	r3, r7, #12
   10c6e:	6878      	ldr	r0, [r7, #4]
   10c70:	f646 3103 	movw	r1, #27395	; 0x6b03
   10c74:	f2c8 0101 	movt	r1, #32769	; 0x8001
   10c78:	461a      	mov	r2, r3
   10c7a:	f7ff ee60 	blx	1093c <ioctl@plt>
   10c7e:	4603      	mov	r3, r0
   10c80:	2b00      	cmp	r3, #0
   10c82:	d006      	beq.n	10c92 <default_spi_config+0xb6>
    {
        perror("Failed to get bwp");
   10c84:	f242 7078 	movw	r0, #10104	; 0x2778
   10c88:	f2c0 0001 	movt	r0, #1
   10c8c:	f7ff ee3e 	blx	1090c <perror@plt>
   10c90:	e007      	b.n	10ca2 <default_spi_config+0xc6>
    }
    else
    {
        printf("BPW: %d\n", x);
   10c92:	68fb      	ldr	r3, [r7, #12]
   10c94:	f242 708c 	movw	r0, #10124	; 0x278c
   10c98:	f2c0 0001 	movt	r0, #1
   10c9c:	4619      	mov	r1, r3
   10c9e:	f7ff ee5a 	blx	10954 <printf@plt>
    }
}
   10ca2:	3710      	adds	r7, #16
   10ca4:	46bd      	mov	sp, r7
   10ca6:	bd80      	pop	{r7, pc}

00010ca8 <write_reg>:
#define READ_CMD_BIT (1<<7)
#define BURST_CMD_BIT (1<<6)


void write_reg(int fd, uint8_t addr, uint8_t value, uint8_t *response)
{
   10ca8:	b5b0      	push	{r4, r5, r7, lr}
   10caa:	b090      	sub	sp, #64	; 0x40
   10cac:	af00      	add	r7, sp, #0
   10cae:	60f8      	str	r0, [r7, #12]
   10cb0:	607b      	str	r3, [r7, #4]
   10cb2:	460b      	mov	r3, r1
   10cb4:	72fb      	strb	r3, [r7, #11]
   10cb6:	4613      	mov	r3, r2
   10cb8:	72bb      	strb	r3, [r7, #10]
    int ret;
    struct spi_ioc_transfer tr;
    #define N_RESP_BYTES (2) 
    uint8_t *wr, *rd;
    wr = malloc(N_RESP_BYTES);
   10cba:	2002      	movs	r0, #2
   10cbc:	f7ff ee5c 	blx	10978 <malloc@plt>
   10cc0:	4603      	mov	r3, r0
   10cc2:	63fb      	str	r3, [r7, #60]	; 0x3c
    rd = malloc(N_RESP_BYTES);
   10cc4:	2002      	movs	r0, #2
   10cc6:	f7ff ee58 	blx	10978 <malloc@plt>
   10cca:	4603      	mov	r3, r0
   10ccc:	63bb      	str	r3, [r7, #56]	; 0x38
    memset(&tr, 0, sizeof(tr));
   10cce:	f107 0310 	add.w	r3, r7, #16
   10cd2:	4618      	mov	r0, r3
   10cd4:	2100      	movs	r1, #0
   10cd6:	2220      	movs	r2, #32
   10cd8:	f7ff ee12 	blx	10900 <memset@plt>
    memset(wr, 0, 10);
   10cdc:	6bf8      	ldr	r0, [r7, #60]	; 0x3c
   10cde:	2100      	movs	r1, #0
   10ce0:	220a      	movs	r2, #10
   10ce2:	f7ff ee0e 	blx	10900 <memset@plt>
    memset(rd, 0, 10);
   10ce6:	6bb8      	ldr	r0, [r7, #56]	; 0x38
   10ce8:	2100      	movs	r1, #0
   10cea:	220a      	movs	r2, #10
   10cec:	f7ff ee08 	blx	10900 <memset@plt>

    wr[0] = (addr);
   10cf0:	6bfb      	ldr	r3, [r7, #60]	; 0x3c
   10cf2:	2b00      	cmp	r3, #0
   10cf4:	d106      	bne.n	10d04 <write_reg+0x5c>
   10cf6:	f244 1054 	movw	r0, #16724	; 0x4154
   10cfa:	f2c0 0002 	movt	r0, #2
   10cfe:	2100      	movs	r1, #0
   10d00:	f7ff ee40 	blx	10984 <__ubsan_handle_type_mismatch@plt>
   10d04:	6bfb      	ldr	r3, [r7, #60]	; 0x3c
   10d06:	7afa      	ldrb	r2, [r7, #11]
   10d08:	701a      	strb	r2, [r3, #0]
    wr[1] = value;
   10d0a:	6bfb      	ldr	r3, [r7, #60]	; 0x3c
   10d0c:	1c5c      	adds	r4, r3, #1
   10d0e:	2c00      	cmp	r4, #0
   10d10:	d106      	bne.n	10d20 <write_reg+0x78>
   10d12:	f244 106c 	movw	r0, #16748	; 0x416c
   10d16:	f2c0 0002 	movt	r0, #2
   10d1a:	2100      	movs	r1, #0
   10d1c:	f7ff ee32 	blx	10984 <__ubsan_handle_type_mismatch@plt>
   10d20:	7abb      	ldrb	r3, [r7, #10]
   10d22:	7023      	strb	r3, [r4, #0]

    GPIO_CLR = 1<<(GPIO_CHIP_SEL);
   10d24:	f644 4300 	movw	r3, #19456	; 0x4c00
   10d28:	f2c0 0302 	movt	r3, #2
   10d2c:	681b      	ldr	r3, [r3, #0]
   10d2e:	f103 0428 	add.w	r4, r3, #40	; 0x28
   10d32:	2c00      	cmp	r4, #0
   10d34:	d106      	bne.n	10d44 <write_reg+0x9c>
   10d36:	f244 10a0 	movw	r0, #16800	; 0x41a0
   10d3a:	f2c0 0002 	movt	r0, #2
   10d3e:	2100      	movs	r1, #0
   10d40:	f7ff ee20 	blx	10984 <__ubsan_handle_type_mismatch@plt>
   10d44:	f44f 0380 	mov.w	r3, #4194304	; 0x400000
   10d48:	6023      	str	r3, [r4, #0]
    while(GET_GPIO(GPIO_RDY))
   10d4a:	e01b      	b.n	10d84 <write_reg+0xdc>
    {
        int i = 0;
   10d4c:	2300      	movs	r3, #0
   10d4e:	637b      	str	r3, [r7, #52]	; 0x34
        printf("Waiting for Chiprdy ....%d\n", i++);
   10d50:	6b7c      	ldr	r4, [r7, #52]	; 0x34
   10d52:	1c65      	adds	r5, r4, #1
   10d54:	2301      	movs	r3, #1
   10d56:	2b00      	cmp	r3, #0
   10d58:	db02      	blt.n	10d60 <write_reg+0xb8>
   10d5a:	42a5      	cmp	r5, r4
   10d5c:	da0a      	bge.n	10d74 <write_reg+0xcc>
   10d5e:	e001      	b.n	10d64 <write_reg+0xbc>
   10d60:	42a5      	cmp	r5, r4
   10d62:	dd07      	ble.n	10d74 <write_reg+0xcc>
   10d64:	f244 2018 	movw	r0, #16920	; 0x4218
   10d68:	f2c0 0002 	movt	r0, #2
   10d6c:	4621      	mov	r1, r4
   10d6e:	2201      	movs	r2, #1
   10d70:	f7ff edea 	blx	10948 <__ubsan_handle_add_overflow@plt>
   10d74:	637d      	str	r5, [r7, #52]	; 0x34
   10d76:	f242 70a4 	movw	r0, #10148	; 0x27a4
   10d7a:	f2c0 0001 	movt	r0, #1
   10d7e:	4621      	mov	r1, r4
   10d80:	f7ff ede8 	blx	10954 <printf@plt>

    wr[0] = (addr);
    wr[1] = value;

    GPIO_CLR = 1<<(GPIO_CHIP_SEL);
    while(GET_GPIO(GPIO_RDY))
   10d84:	f644 4300 	movw	r3, #19456	; 0x4c00
   10d88:	f2c0 0302 	movt	r3, #2
   10d8c:	681b      	ldr	r3, [r3, #0]
   10d8e:	f103 0434 	add.w	r4, r3, #52	; 0x34
   10d92:	2c00      	cmp	r4, #0
   10d94:	d106      	bne.n	10da4 <write_reg+0xfc>
   10d96:	f244 10b8 	movw	r0, #16824	; 0x41b8
   10d9a:	f2c0 0002 	movt	r0, #2
   10d9e:	2100      	movs	r1, #0
   10da0:	f7ff edf0 	blx	10984 <__ubsan_handle_type_mismatch@plt>
   10da4:	6823      	ldr	r3, [r4, #0]
   10da6:	f003 7300 	and.w	r3, r3, #33554432	; 0x2000000
   10daa:	2b00      	cmp	r3, #0
   10dac:	d1ce      	bne.n	10d4c <write_reg+0xa4>
        printf("Waiting for Chiprdy ....%d\n", i++);
    }
#if 0
    printf("Writing %02x val %02x\n", addr, value);
#endif
    tr.tx_buf = (unsigned long) wr;
   10dae:	6bfb      	ldr	r3, [r7, #60]	; 0x3c
   10db0:	461a      	mov	r2, r3
   10db2:	f04f 0300 	mov.w	r3, #0
   10db6:	e9c7 2304 	strd	r2, r3, [r7, #16]
    tr.rx_buf = (unsigned long) rd;
   10dba:	6bbb      	ldr	r3, [r7, #56]	; 0x38
   10dbc:	461a      	mov	r2, r3
   10dbe:	f04f 0300 	mov.w	r3, #0
   10dc2:	e9c7 2306 	strd	r2, r3, [r7, #24]
    tr.len = N_RESP_BYTES;
   10dc6:	2302      	movs	r3, #2
   10dc8:	623b      	str	r3, [r7, #32]
    tr.delay_usecs = 90;
   10dca:	235a      	movs	r3, #90	; 0x5a
   10dcc:	853b      	strh	r3, [r7, #40]	; 0x28
    tr.speed_hz = SPI_SPEED;
   10dce:	f644 3340 	movw	r3, #19264	; 0x4b40
   10dd2:	f2c0 034c 	movt	r3, #76	; 0x4c
   10dd6:	627b      	str	r3, [r7, #36]	; 0x24
    tr.bits_per_word = 8;
   10dd8:	2308      	movs	r3, #8
   10dda:	f887 302a 	strb.w	r3, [r7, #42]	; 0x2a
    tr.cs_change = 0;
   10dde:	2300      	movs	r3, #0
   10de0:	f887 302b 	strb.w	r3, [r7, #43]	; 0x2b

    ret = ioctl(fd, SPI_IOC_MESSAGE(1), &tr);
   10de4:	f107 0310 	add.w	r3, r7, #16
   10de8:	68f8      	ldr	r0, [r7, #12]
   10dea:	f44f 41d6 	mov.w	r1, #27392	; 0x6b00
   10dee:	f2c4 0120 	movt	r1, #16416	; 0x4020
   10df2:	461a      	mov	r2, r3
   10df4:	f7ff eda2 	blx	1093c <ioctl@plt>
   10df8:	6338      	str	r0, [r7, #48]	; 0x30
    if (ret < 1)
   10dfa:	6b3b      	ldr	r3, [r7, #48]	; 0x30
   10dfc:	2b00      	cmp	r3, #0
   10dfe:	dc05      	bgt.n	10e0c <write_reg+0x164>
        perror("can't send spi message");
   10e00:	f242 70c0 	movw	r0, #10176	; 0x27c0
   10e04:	f2c0 0001 	movt	r0, #1
   10e08:	f7ff ed80 	blx	1090c <perror@plt>
#if 0
    for (ret = 0; ret < tr.len; ret++) {
        printf("..%02X.. ", rd[ret]);
    }
#endif
    if (response)
   10e0c:	687b      	ldr	r3, [r7, #4]
   10e0e:	2b00      	cmp	r3, #0
   10e10:	d018      	beq.n	10e44 <write_reg+0x19c>
        response[0] = rd[1];
   10e12:	6bbb      	ldr	r3, [r7, #56]	; 0x38
   10e14:	2b00      	cmp	r3, #0
   10e16:	d106      	bne.n	10e26 <write_reg+0x17e>
   10e18:	f244 10d0 	movw	r0, #16848	; 0x41d0
   10e1c:	f2c0 0002 	movt	r0, #2
   10e20:	2100      	movs	r1, #0
   10e22:	f7ff edb0 	blx	10984 <__ubsan_handle_type_mismatch@plt>
   10e26:	6bbb      	ldr	r3, [r7, #56]	; 0x38
   10e28:	785c      	ldrb	r4, [r3, #1]
   10e2a:	687b      	ldr	r3, [r7, #4]
   10e2c:	2b00      	cmp	r3, #0
   10e2e:	d106      	bne.n	10e3e <write_reg+0x196>
   10e30:	f244 10e8 	movw	r0, #16872	; 0x41e8
   10e34:	f2c0 0002 	movt	r0, #2
   10e38:	2100      	movs	r1, #0
   10e3a:	f7ff eda4 	blx	10984 <__ubsan_handle_type_mismatch@plt>
   10e3e:	687b      	ldr	r3, [r7, #4]
   10e40:	4622      	mov	r2, r4
   10e42:	701a      	strb	r2, [r3, #0]
    GPIO_SET = 1 << (GPIO_CHIP_SEL);
   10e44:	f644 4300 	movw	r3, #19456	; 0x4c00
   10e48:	f2c0 0302 	movt	r3, #2
   10e4c:	681b      	ldr	r3, [r3, #0]
   10e4e:	f103 041c 	add.w	r4, r3, #28
   10e52:	2c00      	cmp	r4, #0
   10e54:	d106      	bne.n	10e64 <write_reg+0x1bc>
   10e56:	f244 2000 	movw	r0, #16896	; 0x4200
   10e5a:	f2c0 0002 	movt	r0, #2
   10e5e:	2100      	movs	r1, #0
   10e60:	f7ff ed90 	blx	10984 <__ubsan_handle_type_mismatch@plt>
   10e64:	f44f 0380 	mov.w	r3, #4194304	; 0x400000
   10e68:	6023      	str	r3, [r4, #0]
    free(wr);
   10e6a:	6bf8      	ldr	r0, [r7, #60]	; 0x3c
   10e6c:	f7ff ed5a 	blx	10924 <free@plt>
    free(rd);
   10e70:	6bb8      	ldr	r0, [r7, #56]	; 0x38
   10e72:	f7ff ed58 	blx	10924 <free@plt>
}
   10e76:	3740      	adds	r7, #64	; 0x40
   10e78:	46bd      	mov	sp, r7
   10e7a:	bdb0      	pop	{r4, r5, r7, pc}

00010e7c <read_reg_burst>:

void read_reg_burst(int fd, uint8_t addr, uint8_t len, uint8_t *dest)
{
   10e7c:	b5b0      	push	{r4, r5, r7, lr}
   10e7e:	b092      	sub	sp, #72	; 0x48
   10e80:	af00      	add	r7, sp, #0
   10e82:	60f8      	str	r0, [r7, #12]
   10e84:	607b      	str	r3, [r7, #4]
   10e86:	460b      	mov	r3, r1
   10e88:	72fb      	strb	r3, [r7, #11]
   10e8a:	4613      	mov	r3, r2
   10e8c:	72bb      	strb	r3, [r7, #10]
    int ret;
    uint32_t i;
    struct spi_ioc_transfer tr;
    #define N_RESP_BYTES (2) 
    uint8_t *wr, *rd;
    wr = malloc(len + 1);
   10e8e:	7abb      	ldrb	r3, [r7, #10]
   10e90:	1c5c      	adds	r4, r3, #1
   10e92:	2201      	movs	r2, #1
   10e94:	2a00      	cmp	r2, #0
   10e96:	db02      	blt.n	10e9e <read_reg_burst+0x22>
   10e98:	429c      	cmp	r4, r3
   10e9a:	da0a      	bge.n	10eb2 <read_reg_burst+0x36>
   10e9c:	e001      	b.n	10ea2 <read_reg_burst+0x26>
   10e9e:	429c      	cmp	r4, r3
   10ea0:	dd07      	ble.n	10eb2 <read_reg_burst+0x36>
   10ea2:	f244 20b8 	movw	r0, #17080	; 0x42b8
   10ea6:	f2c0 0002 	movt	r0, #2
   10eaa:	4619      	mov	r1, r3
   10eac:	2201      	movs	r2, #1
   10eae:	f7ff ed4c 	blx	10948 <__ubsan_handle_add_overflow@plt>
   10eb2:	4623      	mov	r3, r4
   10eb4:	4618      	mov	r0, r3
   10eb6:	f7ff ed60 	blx	10978 <malloc@plt>
   10eba:	4603      	mov	r3, r0
   10ebc:	63fb      	str	r3, [r7, #60]	; 0x3c
    rd = malloc(len + 1);
   10ebe:	7abb      	ldrb	r3, [r7, #10]
   10ec0:	1c5c      	adds	r4, r3, #1
   10ec2:	2201      	movs	r2, #1
   10ec4:	2a00      	cmp	r2, #0
   10ec6:	db02      	blt.n	10ece <read_reg_burst+0x52>
   10ec8:	429c      	cmp	r4, r3
   10eca:	da0a      	bge.n	10ee2 <read_reg_burst+0x66>
   10ecc:	e001      	b.n	10ed2 <read_reg_burst+0x56>
   10ece:	429c      	cmp	r4, r3
   10ed0:	dd07      	ble.n	10ee2 <read_reg_burst+0x66>
   10ed2:	f244 20c8 	movw	r0, #17096	; 0x42c8
   10ed6:	f2c0 0002 	movt	r0, #2
   10eda:	4619      	mov	r1, r3
   10edc:	2201      	movs	r2, #1
   10ede:	f7ff ed34 	blx	10948 <__ubsan_handle_add_overflow@plt>
   10ee2:	4623      	mov	r3, r4
   10ee4:	4618      	mov	r0, r3
   10ee6:	f7ff ed48 	blx	10978 <malloc@plt>
   10eea:	4603      	mov	r3, r0
   10eec:	63bb      	str	r3, [r7, #56]	; 0x38
    memset(&tr, 0, sizeof(tr));
   10eee:	f107 0310 	add.w	r3, r7, #16
   10ef2:	4618      	mov	r0, r3
   10ef4:	2100      	movs	r1, #0
   10ef6:	2220      	movs	r2, #32
   10ef8:	f7ff ed02 	blx	10900 <memset@plt>
    memset(wr, 0, 10);
   10efc:	6bf8      	ldr	r0, [r7, #60]	; 0x3c
   10efe:	2100      	movs	r1, #0
   10f00:	220a      	movs	r2, #10
   10f02:	f7ff ecfe 	blx	10900 <memset@plt>
    memset(rd, 0, 10);
   10f06:	6bb8      	ldr	r0, [r7, #56]	; 0x38
   10f08:	2100      	movs	r1, #0
   10f0a:	220a      	movs	r2, #10
   10f0c:	f7ff ecf8 	blx	10900 <memset@plt>
    memset(wr, 0xde, sizeof(wr[0])*len);
   10f10:	7abb      	ldrb	r3, [r7, #10]
   10f12:	6bf8      	ldr	r0, [r7, #60]	; 0x3c
   10f14:	21de      	movs	r1, #222	; 0xde
   10f16:	461a      	mov	r2, r3
   10f18:	f7ff ecf2 	blx	10900 <memset@plt>
    wr[0] = (addr) | BURST_CMD_BIT | READ_CMD_BIT;
   10f1c:	7afb      	ldrb	r3, [r7, #11]
   10f1e:	f063 033f 	orn	r3, r3, #63	; 0x3f
   10f22:	b2dc      	uxtb	r4, r3
   10f24:	6bfb      	ldr	r3, [r7, #60]	; 0x3c
   10f26:	2b00      	cmp	r3, #0
   10f28:	d106      	bne.n	10f38 <read_reg_burst+0xbc>
   10f2a:	f244 2028 	movw	r0, #16936	; 0x4228
   10f2e:	f2c0 0002 	movt	r0, #2
   10f32:	2100      	movs	r1, #0
   10f34:	f7ff ed26 	blx	10984 <__ubsan_handle_type_mismatch@plt>
   10f38:	6bfb      	ldr	r3, [r7, #60]	; 0x3c
   10f3a:	4622      	mov	r2, r4
   10f3c:	701a      	strb	r2, [r3, #0]

    GPIO_CLR = 1<<(GPIO_CHIP_SEL);
   10f3e:	f644 4300 	movw	r3, #19456	; 0x4c00
   10f42:	f2c0 0302 	movt	r3, #2
   10f46:	681b      	ldr	r3, [r3, #0]
   10f48:	f103 0428 	add.w	r4, r3, #40	; 0x28
   10f4c:	2c00      	cmp	r4, #0
   10f4e:	d106      	bne.n	10f5e <read_reg_burst+0xe2>
   10f50:	f244 2040 	movw	r0, #16960	; 0x4240
   10f54:	f2c0 0002 	movt	r0, #2
   10f58:	2100      	movs	r1, #0
   10f5a:	f7ff ed14 	blx	10984 <__ubsan_handle_type_mismatch@plt>
   10f5e:	f44f 0380 	mov.w	r3, #4194304	; 0x400000
   10f62:	6023      	str	r3, [r4, #0]

    while(GET_GPIO(GPIO_RDY))
   10f64:	e009      	b.n	10f7a <read_reg_burst+0xfe>
    {
        printf("Waiting for Chiprdy ....%d\n", i++);
   10f66:	6c7b      	ldr	r3, [r7, #68]	; 0x44
   10f68:	1c5a      	adds	r2, r3, #1
   10f6a:	647a      	str	r2, [r7, #68]	; 0x44
   10f6c:	f242 70a4 	movw	r0, #10148	; 0x27a4
   10f70:	f2c0 0001 	movt	r0, #1
   10f74:	4619      	mov	r1, r3
   10f76:	f7ff ecee 	blx	10954 <printf@plt>
    memset(wr, 0xde, sizeof(wr[0])*len);
    wr[0] = (addr) | BURST_CMD_BIT | READ_CMD_BIT;

    GPIO_CLR = 1<<(GPIO_CHIP_SEL);

    while(GET_GPIO(GPIO_RDY))
   10f7a:	f644 4300 	movw	r3, #19456	; 0x4c00
   10f7e:	f2c0 0302 	movt	r3, #2
   10f82:	681b      	ldr	r3, [r3, #0]
   10f84:	f103 0434 	add.w	r4, r3, #52	; 0x34
   10f88:	2c00      	cmp	r4, #0
   10f8a:	d106      	bne.n	10f9a <read_reg_burst+0x11e>
   10f8c:	f244 2058 	movw	r0, #16984	; 0x4258
   10f90:	f2c0 0002 	movt	r0, #2
   10f94:	2100      	movs	r1, #0
   10f96:	f7ff ecf6 	blx	10984 <__ubsan_handle_type_mismatch@plt>
   10f9a:	6823      	ldr	r3, [r4, #0]
   10f9c:	f003 7300 	and.w	r3, r3, #33554432	; 0x2000000
   10fa0:	2b00      	cmp	r3, #0
   10fa2:	d1e0      	bne.n	10f66 <read_reg_burst+0xea>
        printf("Waiting for Chiprdy ....%d\n", i++);
    }
#if 0
    printf("Burst Reading %02x\n", addr);
#endif
    tr.tx_buf = (unsigned long) wr;
   10fa4:	6bfb      	ldr	r3, [r7, #60]	; 0x3c
   10fa6:	461a      	mov	r2, r3
   10fa8:	f04f 0300 	mov.w	r3, #0
   10fac:	e9c7 2304 	strd	r2, r3, [r7, #16]
    tr.rx_buf = (unsigned long) rd;
   10fb0:	6bbb      	ldr	r3, [r7, #56]	; 0x38
   10fb2:	461a      	mov	r2, r3
   10fb4:	f04f 0300 	mov.w	r3, #0
   10fb8:	e9c7 2306 	strd	r2, r3, [r7, #24]
    tr.len = len + 1;
   10fbc:	7abb      	ldrb	r3, [r7, #10]
   10fbe:	1c5c      	adds	r4, r3, #1
   10fc0:	2201      	movs	r2, #1
   10fc2:	2a00      	cmp	r2, #0
   10fc4:	db02      	blt.n	10fcc <read_reg_burst+0x150>
   10fc6:	429c      	cmp	r4, r3
   10fc8:	da0a      	bge.n	10fe0 <read_reg_burst+0x164>
   10fca:	e001      	b.n	10fd0 <read_reg_burst+0x154>
   10fcc:	429c      	cmp	r4, r3
   10fce:	dd07      	ble.n	10fe0 <read_reg_burst+0x164>
   10fd0:	f244 20d8 	movw	r0, #17112	; 0x42d8
   10fd4:	f2c0 0002 	movt	r0, #2
   10fd8:	4619      	mov	r1, r3
   10fda:	2201      	movs	r2, #1
   10fdc:	f7ff ecb4 	blx	10948 <__ubsan_handle_add_overflow@plt>
   10fe0:	4623      	mov	r3, r4
   10fe2:	623b      	str	r3, [r7, #32]
    tr.delay_usecs = 90;
   10fe4:	235a      	movs	r3, #90	; 0x5a
   10fe6:	853b      	strh	r3, [r7, #40]	; 0x28
    tr.speed_hz = SPI_SPEED;
   10fe8:	f644 3340 	movw	r3, #19264	; 0x4b40
   10fec:	f2c0 034c 	movt	r3, #76	; 0x4c
   10ff0:	627b      	str	r3, [r7, #36]	; 0x24
    tr.bits_per_word = 8;
   10ff2:	2308      	movs	r3, #8
   10ff4:	f887 302a 	strb.w	r3, [r7, #42]	; 0x2a
    tr.cs_change = 0;
   10ff8:	2300      	movs	r3, #0
   10ffa:	f887 302b 	strb.w	r3, [r7, #43]	; 0x2b

    ret = ioctl(fd, SPI_IOC_MESSAGE(1), &tr);
   10ffe:	f107 0310 	add.w	r3, r7, #16
   11002:	68f8      	ldr	r0, [r7, #12]
   11004:	f44f 41d6 	mov.w	r1, #27392	; 0x6b00
   11008:	f2c4 0120 	movt	r1, #16416	; 0x4020
   1100c:	461a      	mov	r2, r3
   1100e:	f7ff ec96 	blx	1093c <ioctl@plt>
   11012:	6378      	str	r0, [r7, #52]	; 0x34
    if (ret < 1)
   11014:	6b7b      	ldr	r3, [r7, #52]	; 0x34
   11016:	2b00      	cmp	r3, #0
   11018:	dc05      	bgt.n	11026 <read_reg_burst+0x1aa>
        perror("can't send spi message");
   1101a:	f242 70c0 	movw	r0, #10176	; 0x27c0
   1101e:	f2c0 0001 	movt	r0, #1
   11022:	f7ff ec74 	blx	1090c <perror@plt>
#if 0
    for (i = 0; i < tr.len; i++) {
        printf("..%02X.. ", rd[ret]);
    }
#endif
    if (dest)
   11026:	687b      	ldr	r3, [r7, #4]
   11028:	2b00      	cmp	r3, #0
   1102a:	d037      	beq.n	1109c <read_reg_burst+0x220>
    {
        int i;
        for (i = 0; i < len; i++)
   1102c:	2300      	movs	r3, #0
   1102e:	643b      	str	r3, [r7, #64]	; 0x40
   11030:	e030      	b.n	11094 <read_reg_burst+0x218>
            dest[i] = rd[i + 1];
   11032:	6c3b      	ldr	r3, [r7, #64]	; 0x40
   11034:	687a      	ldr	r2, [r7, #4]
   11036:	18d4      	adds	r4, r2, r3
   11038:	6c3b      	ldr	r3, [r7, #64]	; 0x40
   1103a:	3301      	adds	r3, #1
   1103c:	6bba      	ldr	r2, [r7, #56]	; 0x38
   1103e:	18d5      	adds	r5, r2, r3
   11040:	2d00      	cmp	r5, #0
   11042:	d106      	bne.n	11052 <read_reg_burst+0x1d6>
   11044:	f244 2070 	movw	r0, #17008	; 0x4270
   11048:	f2c0 0002 	movt	r0, #2
   1104c:	2100      	movs	r1, #0
   1104e:	f7ff ec9a 	blx	10984 <__ubsan_handle_type_mismatch@plt>
   11052:	782d      	ldrb	r5, [r5, #0]
   11054:	2c00      	cmp	r4, #0
   11056:	d106      	bne.n	11066 <read_reg_burst+0x1ea>
   11058:	f244 2088 	movw	r0, #17032	; 0x4288
   1105c:	f2c0 0002 	movt	r0, #2
   11060:	2100      	movs	r1, #0
   11062:	f7ff ec90 	blx	10984 <__ubsan_handle_type_mismatch@plt>
   11066:	462b      	mov	r3, r5
   11068:	7023      	strb	r3, [r4, #0]
    }
#endif
    if (dest)
    {
        int i;
        for (i = 0; i < len; i++)
   1106a:	6c3b      	ldr	r3, [r7, #64]	; 0x40
   1106c:	1c5c      	adds	r4, r3, #1
   1106e:	2301      	movs	r3, #1
   11070:	2b00      	cmp	r3, #0
   11072:	db03      	blt.n	1107c <read_reg_burst+0x200>
   11074:	6c3b      	ldr	r3, [r7, #64]	; 0x40
   11076:	429c      	cmp	r4, r3
   11078:	da0b      	bge.n	11092 <read_reg_burst+0x216>
   1107a:	e002      	b.n	11082 <read_reg_burst+0x206>
   1107c:	6c3b      	ldr	r3, [r7, #64]	; 0x40
   1107e:	429c      	cmp	r4, r3
   11080:	dd07      	ble.n	11092 <read_reg_burst+0x216>
   11082:	f244 20e8 	movw	r0, #17128	; 0x42e8
   11086:	f2c0 0002 	movt	r0, #2
   1108a:	6c39      	ldr	r1, [r7, #64]	; 0x40
   1108c:	2201      	movs	r2, #1
   1108e:	f7ff ec5c 	blx	10948 <__ubsan_handle_add_overflow@plt>
   11092:	643c      	str	r4, [r7, #64]	; 0x40
   11094:	7aba      	ldrb	r2, [r7, #10]
   11096:	6c3b      	ldr	r3, [r7, #64]	; 0x40
   11098:	429a      	cmp	r2, r3
   1109a:	dcca      	bgt.n	11032 <read_reg_burst+0x1b6>
            dest[i] = rd[i + 1];
    }
    GPIO_SET = 1 << (GPIO_CHIP_SEL);
   1109c:	f644 4300 	movw	r3, #19456	; 0x4c00
   110a0:	f2c0 0302 	movt	r3, #2
   110a4:	681b      	ldr	r3, [r3, #0]
   110a6:	f103 041c 	add.w	r4, r3, #28
   110aa:	2c00      	cmp	r4, #0
   110ac:	d106      	bne.n	110bc <read_reg_burst+0x240>
   110ae:	f244 20a0 	movw	r0, #17056	; 0x42a0
   110b2:	f2c0 0002 	movt	r0, #2
   110b6:	2100      	movs	r1, #0
   110b8:	f7ff ec64 	blx	10984 <__ubsan_handle_type_mismatch@plt>
   110bc:	f44f 0380 	mov.w	r3, #4194304	; 0x400000
   110c0:	6023      	str	r3, [r4, #0]
    free(wr);
   110c2:	6bf8      	ldr	r0, [r7, #60]	; 0x3c
   110c4:	f7ff ec2e 	blx	10924 <free@plt>
    free(rd);
   110c8:	6bb8      	ldr	r0, [r7, #56]	; 0x38
   110ca:	f7ff ec2c 	blx	10924 <free@plt>
    return;
   110ce:	bf00      	nop
}
   110d0:	3748      	adds	r7, #72	; 0x48
   110d2:	46bd      	mov	sp, r7
   110d4:	bdb0      	pop	{r4, r5, r7, pc}
   110d6:	bf00      	nop

000110d8 <write_reg_burst>:

uint8_t write_reg_burst(int fd, uint8_t addr, uint8_t *value, uint8_t len)
{
   110d8:	b5b0      	push	{r4, r5, r7, lr}
   110da:	b092      	sub	sp, #72	; 0x48
   110dc:	af00      	add	r7, sp, #0
   110de:	60f8      	str	r0, [r7, #12]
   110e0:	607a      	str	r2, [r7, #4]
   110e2:	461a      	mov	r2, r3
   110e4:	460b      	mov	r3, r1
   110e6:	72fb      	strb	r3, [r7, #11]
   110e8:	4613      	mov	r3, r2
   110ea:	72bb      	strb	r3, [r7, #10]
    int ret;
    uint8_t *ptr;
    struct spi_ioc_transfer tr;
    #define N_RESP_BYTES (2) 
    uint8_t *wr, *rd;
    wr = malloc(len + 1);
   110ec:	7abb      	ldrb	r3, [r7, #10]
   110ee:	1c5c      	adds	r4, r3, #1
   110f0:	2201      	movs	r2, #1
   110f2:	2a00      	cmp	r2, #0
   110f4:	db02      	blt.n	110fc <write_reg_burst+0x24>
   110f6:	429c      	cmp	r4, r3
   110f8:	da0a      	bge.n	11110 <write_reg_burst+0x38>
   110fa:	e001      	b.n	11100 <write_reg_burst+0x28>
   110fc:	429c      	cmp	r4, r3
   110fe:	dd07      	ble.n	11110 <write_reg_burst+0x38>
   11100:	f244 30a0 	movw	r0, #17312	; 0x43a0
   11104:	f2c0 0002 	movt	r0, #2
   11108:	4619      	mov	r1, r3
   1110a:	2201      	movs	r2, #1
   1110c:	f7ff ec1c 	blx	10948 <__ubsan_handle_add_overflow@plt>
   11110:	4623      	mov	r3, r4
   11112:	4618      	mov	r0, r3
   11114:	f7ff ec30 	blx	10978 <malloc@plt>
   11118:	4603      	mov	r3, r0
   1111a:	63fb      	str	r3, [r7, #60]	; 0x3c
    rd = malloc(len + 1);
   1111c:	7abb      	ldrb	r3, [r7, #10]
   1111e:	1c5c      	adds	r4, r3, #1
   11120:	2201      	movs	r2, #1
   11122:	2a00      	cmp	r2, #0
   11124:	db02      	blt.n	1112c <write_reg_burst+0x54>
   11126:	429c      	cmp	r4, r3
   11128:	da0a      	bge.n	11140 <write_reg_burst+0x68>
   1112a:	e001      	b.n	11130 <write_reg_burst+0x58>
   1112c:	429c      	cmp	r4, r3
   1112e:	dd07      	ble.n	11140 <write_reg_burst+0x68>
   11130:	f244 30b0 	movw	r0, #17328	; 0x43b0
   11134:	f2c0 0002 	movt	r0, #2
   11138:	4619      	mov	r1, r3
   1113a:	2201      	movs	r2, #1
   1113c:	f7ff ec04 	blx	10948 <__ubsan_handle_add_overflow@plt>
   11140:	4623      	mov	r3, r4
   11142:	4618      	mov	r0, r3
   11144:	f7ff ec18 	blx	10978 <malloc@plt>
   11148:	4603      	mov	r3, r0
   1114a:	63bb      	str	r3, [r7, #56]	; 0x38
    memset(&tr, 0, sizeof(tr));
   1114c:	f107 0310 	add.w	r3, r7, #16
   11150:	4618      	mov	r0, r3
   11152:	2100      	movs	r1, #0
   11154:	2220      	movs	r2, #32
   11156:	f7ff ebd4 	blx	10900 <memset@plt>
    memset(wr, 0, 10);
   1115a:	6bf8      	ldr	r0, [r7, #60]	; 0x3c
   1115c:	2100      	movs	r1, #0
   1115e:	220a      	movs	r2, #10
   11160:	f7ff ebce 	blx	10900 <memset@plt>
    memset(rd, 0, 10);
   11164:	6bb8      	ldr	r0, [r7, #56]	; 0x38
   11166:	2100      	movs	r1, #0
   11168:	220a      	movs	r2, #10
   1116a:	f7ff ebca 	blx	10900 <memset@plt>

    wr[0] = (addr) | BURST_CMD_BIT;
   1116e:	7afb      	ldrb	r3, [r7, #11]
   11170:	f043 0340 	orr.w	r3, r3, #64	; 0x40
   11174:	b2dc      	uxtb	r4, r3
   11176:	6bfb      	ldr	r3, [r7, #60]	; 0x3c
   11178:	2b00      	cmp	r3, #0
   1117a:	d106      	bne.n	1118a <write_reg_burst+0xb2>
   1117c:	f244 20f8 	movw	r0, #17144	; 0x42f8
   11180:	f2c0 0002 	movt	r0, #2
   11184:	2100      	movs	r1, #0
   11186:	f7ff ebfe 	blx	10984 <__ubsan_handle_type_mismatch@plt>
   1118a:	6bfb      	ldr	r3, [r7, #60]	; 0x3c
   1118c:	4622      	mov	r2, r4
   1118e:	701a      	strb	r2, [r3, #0]
    ptr = &wr[1];
   11190:	6bfb      	ldr	r3, [r7, #60]	; 0x3c
   11192:	3301      	adds	r3, #1
   11194:	647b      	str	r3, [r7, #68]	; 0x44
    for (int i = 0; i < len; i++)
   11196:	2300      	movs	r3, #0
   11198:	643b      	str	r3, [r7, #64]	; 0x40
   1119a:	e02f      	b.n	111fc <write_reg_burst+0x124>
        *ptr++ = *value++;
   1119c:	6c7c      	ldr	r4, [r7, #68]	; 0x44
   1119e:	1c63      	adds	r3, r4, #1
   111a0:	647b      	str	r3, [r7, #68]	; 0x44
   111a2:	687d      	ldr	r5, [r7, #4]
   111a4:	1c6b      	adds	r3, r5, #1
   111a6:	607b      	str	r3, [r7, #4]
   111a8:	2d00      	cmp	r5, #0
   111aa:	d106      	bne.n	111ba <write_reg_burst+0xe2>
   111ac:	f244 3010 	movw	r0, #17168	; 0x4310
   111b0:	f2c0 0002 	movt	r0, #2
   111b4:	2100      	movs	r1, #0
   111b6:	f7ff ebe6 	blx	10984 <__ubsan_handle_type_mismatch@plt>
   111ba:	782d      	ldrb	r5, [r5, #0]
   111bc:	2c00      	cmp	r4, #0
   111be:	d106      	bne.n	111ce <write_reg_burst+0xf6>
   111c0:	f244 3028 	movw	r0, #17192	; 0x4328
   111c4:	f2c0 0002 	movt	r0, #2
   111c8:	2100      	movs	r1, #0
   111ca:	f7ff ebdc 	blx	10984 <__ubsan_handle_type_mismatch@plt>
   111ce:	462b      	mov	r3, r5
   111d0:	7023      	strb	r3, [r4, #0]
    memset(wr, 0, 10);
    memset(rd, 0, 10);

    wr[0] = (addr) | BURST_CMD_BIT;
    ptr = &wr[1];
    for (int i = 0; i < len; i++)
   111d2:	6c3b      	ldr	r3, [r7, #64]	; 0x40
   111d4:	1c5c      	adds	r4, r3, #1
   111d6:	2301      	movs	r3, #1
   111d8:	2b00      	cmp	r3, #0
   111da:	db03      	blt.n	111e4 <write_reg_burst+0x10c>
   111dc:	6c3b      	ldr	r3, [r7, #64]	; 0x40
   111de:	429c      	cmp	r4, r3
   111e0:	da0b      	bge.n	111fa <write_reg_burst+0x122>
   111e2:	e002      	b.n	111ea <write_reg_burst+0x112>
   111e4:	6c3b      	ldr	r3, [r7, #64]	; 0x40
   111e6:	429c      	cmp	r4, r3
   111e8:	dd07      	ble.n	111fa <write_reg_burst+0x122>
   111ea:	f244 30c0 	movw	r0, #17344	; 0x43c0
   111ee:	f2c0 0002 	movt	r0, #2
   111f2:	6c39      	ldr	r1, [r7, #64]	; 0x40
   111f4:	2201      	movs	r2, #1
   111f6:	f7ff eba8 	blx	10948 <__ubsan_handle_add_overflow@plt>
   111fa:	643c      	str	r4, [r7, #64]	; 0x40
   111fc:	7aba      	ldrb	r2, [r7, #10]
   111fe:	6c3b      	ldr	r3, [r7, #64]	; 0x40
   11200:	429a      	cmp	r2, r3
   11202:	dccb      	bgt.n	1119c <write_reg_burst+0xc4>
        *ptr++ = *value++;
    GPIO_CLR = 1<<(GPIO_CHIP_SEL);
   11204:	f644 4300 	movw	r3, #19456	; 0x4c00
   11208:	f2c0 0302 	movt	r3, #2
   1120c:	681b      	ldr	r3, [r3, #0]
   1120e:	f103 0428 	add.w	r4, r3, #40	; 0x28
   11212:	2c00      	cmp	r4, #0
   11214:	d106      	bne.n	11224 <write_reg_burst+0x14c>
   11216:	f244 3040 	movw	r0, #17216	; 0x4340
   1121a:	f2c0 0002 	movt	r0, #2
   1121e:	2100      	movs	r1, #0
   11220:	f7ff ebb0 	blx	10984 <__ubsan_handle_type_mismatch@plt>
   11224:	f44f 0380 	mov.w	r3, #4194304	; 0x400000
   11228:	6023      	str	r3, [r4, #0]
    while(GET_GPIO(GPIO_RDY))
   1122a:	e01b      	b.n	11264 <write_reg_burst+0x18c>
    {
        int i = 0;
   1122c:	2300      	movs	r3, #0
   1122e:	637b      	str	r3, [r7, #52]	; 0x34
        printf("Waiting for Chiprdy ....%d\n", i++);
   11230:	6b7c      	ldr	r4, [r7, #52]	; 0x34
   11232:	1c65      	adds	r5, r4, #1
   11234:	2301      	movs	r3, #1
   11236:	2b00      	cmp	r3, #0
   11238:	db02      	blt.n	11240 <write_reg_burst+0x168>
   1123a:	42a5      	cmp	r5, r4
   1123c:	da0a      	bge.n	11254 <write_reg_burst+0x17c>
   1123e:	e001      	b.n	11244 <write_reg_burst+0x16c>
   11240:	42a5      	cmp	r5, r4
   11242:	dd07      	ble.n	11254 <write_reg_burst+0x17c>
   11244:	f244 30d0 	movw	r0, #17360	; 0x43d0
   11248:	f2c0 0002 	movt	r0, #2
   1124c:	4621      	mov	r1, r4
   1124e:	2201      	movs	r2, #1
   11250:	f7ff eb7a 	blx	10948 <__ubsan_handle_add_overflow@plt>
   11254:	637d      	str	r5, [r7, #52]	; 0x34
   11256:	f242 70a4 	movw	r0, #10148	; 0x27a4
   1125a:	f2c0 0001 	movt	r0, #1
   1125e:	4621      	mov	r1, r4
   11260:	f7ff eb78 	blx	10954 <printf@plt>
    wr[0] = (addr) | BURST_CMD_BIT;
    ptr = &wr[1];
    for (int i = 0; i < len; i++)
        *ptr++ = *value++;
    GPIO_CLR = 1<<(GPIO_CHIP_SEL);
    while(GET_GPIO(GPIO_RDY))
   11264:	f644 4300 	movw	r3, #19456	; 0x4c00
   11268:	f2c0 0302 	movt	r3, #2
   1126c:	681b      	ldr	r3, [r3, #0]
   1126e:	f103 0434 	add.w	r4, r3, #52	; 0x34
   11272:	2c00      	cmp	r4, #0
   11274:	d106      	bne.n	11284 <write_reg_burst+0x1ac>
   11276:	f244 3058 	movw	r0, #17240	; 0x4358
   1127a:	f2c0 0002 	movt	r0, #2
   1127e:	2100      	movs	r1, #0
   11280:	f7ff eb80 	blx	10984 <__ubsan_handle_type_mismatch@plt>
   11284:	6823      	ldr	r3, [r4, #0]
   11286:	f003 7300 	and.w	r3, r3, #33554432	; 0x2000000
   1128a:	2b00      	cmp	r3, #0
   1128c:	d1ce      	bne.n	1122c <write_reg_burst+0x154>
    {
        int i = 0;
        printf("Waiting for Chiprdy ....%d\n", i++);
    }
    printf("Writing %02x \n", addr);
   1128e:	7afb      	ldrb	r3, [r7, #11]
   11290:	f242 70d8 	movw	r0, #10200	; 0x27d8
   11294:	f2c0 0001 	movt	r0, #1
   11298:	4619      	mov	r1, r3
   1129a:	f7ff eb5c 	blx	10954 <printf@plt>
    tr.tx_buf = (unsigned long) wr;
   1129e:	6bfb      	ldr	r3, [r7, #60]	; 0x3c
   112a0:	461a      	mov	r2, r3
   112a2:	f04f 0300 	mov.w	r3, #0
   112a6:	e9c7 2304 	strd	r2, r3, [r7, #16]
    tr.rx_buf = (unsigned long) rd;
   112aa:	6bbb      	ldr	r3, [r7, #56]	; 0x38
   112ac:	461a      	mov	r2, r3
   112ae:	f04f 0300 	mov.w	r3, #0
   112b2:	e9c7 2306 	strd	r2, r3, [r7, #24]
    tr.len = len + 1;
   112b6:	7abb      	ldrb	r3, [r7, #10]
   112b8:	1c5c      	adds	r4, r3, #1
   112ba:	2201      	movs	r2, #1
   112bc:	2a00      	cmp	r2, #0
   112be:	db02      	blt.n	112c6 <write_reg_burst+0x1ee>
   112c0:	429c      	cmp	r4, r3
   112c2:	da0a      	bge.n	112da <write_reg_burst+0x202>
   112c4:	e001      	b.n	112ca <write_reg_burst+0x1f2>
   112c6:	429c      	cmp	r4, r3
   112c8:	dd07      	ble.n	112da <write_reg_burst+0x202>
   112ca:	f244 30e0 	movw	r0, #17376	; 0x43e0
   112ce:	f2c0 0002 	movt	r0, #2
   112d2:	4619      	mov	r1, r3
   112d4:	2201      	movs	r2, #1
   112d6:	f7ff eb38 	blx	10948 <__ubsan_handle_add_overflow@plt>
   112da:	4623      	mov	r3, r4
   112dc:	623b      	str	r3, [r7, #32]
    tr.delay_usecs = 90;
   112de:	235a      	movs	r3, #90	; 0x5a
   112e0:	853b      	strh	r3, [r7, #40]	; 0x28
    tr.speed_hz = SPI_SPEED;
   112e2:	f644 3340 	movw	r3, #19264	; 0x4b40
   112e6:	f2c0 034c 	movt	r3, #76	; 0x4c
   112ea:	627b      	str	r3, [r7, #36]	; 0x24
    tr.bits_per_word = 8;
   112ec:	2308      	movs	r3, #8
   112ee:	f887 302a 	strb.w	r3, [r7, #42]	; 0x2a
    tr.cs_change = 0;
   112f2:	2300      	movs	r3, #0
   112f4:	f887 302b 	strb.w	r3, [r7, #43]	; 0x2b

    ret = ioctl(fd, SPI_IOC_MESSAGE(1), &tr);
   112f8:	f107 0310 	add.w	r3, r7, #16
   112fc:	68f8      	ldr	r0, [r7, #12]
   112fe:	f44f 41d6 	mov.w	r1, #27392	; 0x6b00
   11302:	f2c4 0120 	movt	r1, #16416	; 0x4020
   11306:	461a      	mov	r2, r3
   11308:	f7ff eb18 	blx	1093c <ioctl@plt>
   1130c:	6338      	str	r0, [r7, #48]	; 0x30
    if (ret < 1)
   1130e:	6b3b      	ldr	r3, [r7, #48]	; 0x30
   11310:	2b00      	cmp	r3, #0
   11312:	dc05      	bgt.n	11320 <write_reg_burst+0x248>
        perror("can't send spi message");
   11314:	f242 70c0 	movw	r0, #10176	; 0x27c0
   11318:	f2c0 0001 	movt	r0, #1
   1131c:	f7ff eaf6 	blx	1090c <perror@plt>
#if 0
    for (ret = 0; ret < tr.len; ret++) {
        printf("..%02X.. ", rd[ret]);
    }
#endif
    GPIO_SET = 1 << (GPIO_CHIP_SEL);
   11320:	f644 4300 	movw	r3, #19456	; 0x4c00
   11324:	f2c0 0302 	movt	r3, #2
   11328:	681b      	ldr	r3, [r3, #0]
   1132a:	f103 041c 	add.w	r4, r3, #28
   1132e:	2c00      	cmp	r4, #0
   11330:	d106      	bne.n	11340 <write_reg_burst+0x268>
   11332:	f244 3070 	movw	r0, #17264	; 0x4370
   11336:	f2c0 0002 	movt	r0, #2
   1133a:	2100      	movs	r1, #0
   1133c:	f7ff eb22 	blx	10984 <__ubsan_handle_type_mismatch@plt>
   11340:	f44f 0380 	mov.w	r3, #4194304	; 0x400000
   11344:	6023      	str	r3, [r4, #0]
    free(wr);
   11346:	6bf8      	ldr	r0, [r7, #60]	; 0x3c
   11348:	f7ff eaec 	blx	10924 <free@plt>
    free(rd);
   1134c:	6bb8      	ldr	r0, [r7, #56]	; 0x38
   1134e:	f7ff eaea 	blx	10924 <free@plt>
    return rd[1];
   11352:	6bbb      	ldr	r3, [r7, #56]	; 0x38
   11354:	2b00      	cmp	r3, #0
   11356:	d106      	bne.n	11366 <write_reg_burst+0x28e>
   11358:	f244 3088 	movw	r0, #17288	; 0x4388
   1135c:	f2c0 0002 	movt	r0, #2
   11360:	2100      	movs	r1, #0
   11362:	f7ff eb10 	blx	10984 <__ubsan_handle_type_mismatch@plt>
   11366:	6bbb      	ldr	r3, [r7, #56]	; 0x38
   11368:	785b      	ldrb	r3, [r3, #1]
}
   1136a:	4618      	mov	r0, r3
   1136c:	3748      	adds	r7, #72	; 0x48
   1136e:	46bd      	mov	sp, r7
   11370:	bdb0      	pop	{r4, r5, r7, pc}
   11372:	bf00      	nop

00011374 <read_reg>:

uint8_t read_reg(int fd, uint8_t addr, uint8_t *status)
{
   11374:	b5b0      	push	{r4, r5, r7, lr}
   11376:	b090      	sub	sp, #64	; 0x40
   11378:	af00      	add	r7, sp, #0
   1137a:	60f8      	str	r0, [r7, #12]
   1137c:	460b      	mov	r3, r1
   1137e:	607a      	str	r2, [r7, #4]
   11380:	72fb      	strb	r3, [r7, #11]
    int ret;
    struct spi_ioc_transfer tr;
    #define N_RESP_BYTES (2) 
    uint8_t *wr, *rd;
    wr = calloc(N_RESP_BYTES , sizeof(uint8_t));
   11382:	2002      	movs	r0, #2
   11384:	2101      	movs	r1, #1
   11386:	f7ff eab6 	blx	108f4 <calloc@plt>
   1138a:	4603      	mov	r3, r0
   1138c:	63fb      	str	r3, [r7, #60]	; 0x3c
    rd = calloc(N_RESP_BYTES , sizeof(uint8_t));
   1138e:	2002      	movs	r0, #2
   11390:	2101      	movs	r1, #1
   11392:	f7ff eab0 	blx	108f4 <calloc@plt>
   11396:	4603      	mov	r3, r0
   11398:	63bb      	str	r3, [r7, #56]	; 0x38
    memset(&tr, 0, sizeof(tr));
   1139a:	f107 0310 	add.w	r3, r7, #16
   1139e:	4618      	mov	r0, r3
   113a0:	2100      	movs	r1, #0
   113a2:	2220      	movs	r2, #32
   113a4:	f7ff eaac 	blx	10900 <memset@plt>

    wr[0] = (addr & 0x3f) | READ_CMD_BIT;
   113a8:	7afb      	ldrb	r3, [r7, #11]
   113aa:	f003 033f 	and.w	r3, r3, #63	; 0x3f
   113ae:	b2db      	uxtb	r3, r3
   113b0:	f063 037f 	orn	r3, r3, #127	; 0x7f
   113b4:	b2db      	uxtb	r3, r3
   113b6:	b2dc      	uxtb	r4, r3
   113b8:	6bfb      	ldr	r3, [r7, #60]	; 0x3c
   113ba:	2b00      	cmp	r3, #0
   113bc:	d106      	bne.n	113cc <read_reg+0x58>
   113be:	f244 30f0 	movw	r0, #17392	; 0x43f0
   113c2:	f2c0 0002 	movt	r0, #2
   113c6:	2100      	movs	r1, #0
   113c8:	f7ff eadc 	blx	10984 <__ubsan_handle_type_mismatch@plt>
   113cc:	6bfb      	ldr	r3, [r7, #60]	; 0x3c
   113ce:	4622      	mov	r2, r4
   113d0:	701a      	strb	r2, [r3, #0]
    wr[1] = 0x3e;
   113d2:	6bfb      	ldr	r3, [r7, #60]	; 0x3c
   113d4:	1c5c      	adds	r4, r3, #1
   113d6:	2c00      	cmp	r4, #0
   113d8:	d106      	bne.n	113e8 <read_reg+0x74>
   113da:	f244 4008 	movw	r0, #17416	; 0x4408
   113de:	f2c0 0002 	movt	r0, #2
   113e2:	2100      	movs	r1, #0
   113e4:	f7ff eace 	blx	10984 <__ubsan_handle_type_mismatch@plt>
   113e8:	233e      	movs	r3, #62	; 0x3e
   113ea:	7023      	strb	r3, [r4, #0]
    if (addr >= 0x30)
   113ec:	7afb      	ldrb	r3, [r7, #11]
   113ee:	2b2f      	cmp	r3, #47	; 0x2f
   113f0:	d91b      	bls.n	1142a <read_reg+0xb6>
    {
        wr[0] |= BURST_CMD_BIT;
   113f2:	6bfb      	ldr	r3, [r7, #60]	; 0x3c
   113f4:	2b00      	cmp	r3, #0
   113f6:	d106      	bne.n	11406 <read_reg+0x92>
   113f8:	f244 4020 	movw	r0, #17440	; 0x4420
   113fc:	f2c0 0002 	movt	r0, #2
   11400:	2100      	movs	r1, #0
   11402:	f7ff eac0 	blx	10984 <__ubsan_handle_type_mismatch@plt>
   11406:	6bfb      	ldr	r3, [r7, #60]	; 0x3c
   11408:	781b      	ldrb	r3, [r3, #0]
   1140a:	f043 0340 	orr.w	r3, r3, #64	; 0x40
   1140e:	b2dc      	uxtb	r4, r3
   11410:	6bfb      	ldr	r3, [r7, #60]	; 0x3c
   11412:	2b00      	cmp	r3, #0
   11414:	d106      	bne.n	11424 <read_reg+0xb0>
   11416:	f244 4038 	movw	r0, #17464	; 0x4438
   1141a:	f2c0 0002 	movt	r0, #2
   1141e:	2100      	movs	r1, #0
   11420:	f7ff eab0 	blx	10984 <__ubsan_handle_type_mismatch@plt>
   11424:	6bfb      	ldr	r3, [r7, #60]	; 0x3c
   11426:	4622      	mov	r2, r4
   11428:	701a      	strb	r2, [r3, #0]
    }

    GPIO_CLR = 1<<(GPIO_CHIP_SEL);
   1142a:	f644 4300 	movw	r3, #19456	; 0x4c00
   1142e:	f2c0 0302 	movt	r3, #2
   11432:	681b      	ldr	r3, [r3, #0]
   11434:	f103 0428 	add.w	r4, r3, #40	; 0x28
   11438:	2c00      	cmp	r4, #0
   1143a:	d106      	bne.n	1144a <read_reg+0xd6>
   1143c:	f244 4050 	movw	r0, #17488	; 0x4450
   11440:	f2c0 0002 	movt	r0, #2
   11444:	2100      	movs	r1, #0
   11446:	f7ff ea9e 	blx	10984 <__ubsan_handle_type_mismatch@plt>
   1144a:	f44f 0380 	mov.w	r3, #4194304	; 0x400000
   1144e:	6023      	str	r3, [r4, #0]
    while(GET_GPIO(GPIO_RDY))
   11450:	e01b      	b.n	1148a <read_reg+0x116>
    {
        int i = 0;
   11452:	2300      	movs	r3, #0
   11454:	637b      	str	r3, [r7, #52]	; 0x34
        printf("Waiting for Chiprdy ....%d\n", i++);
   11456:	6b7c      	ldr	r4, [r7, #52]	; 0x34
   11458:	1c65      	adds	r5, r4, #1
   1145a:	2301      	movs	r3, #1
   1145c:	2b00      	cmp	r3, #0
   1145e:	db02      	blt.n	11466 <read_reg+0xf2>
   11460:	42a5      	cmp	r5, r4
   11462:	da0a      	bge.n	1147a <read_reg+0x106>
   11464:	e001      	b.n	1146a <read_reg+0xf6>
   11466:	42a5      	cmp	r5, r4
   11468:	dd07      	ble.n	1147a <read_reg+0x106>
   1146a:	f244 40e0 	movw	r0, #17632	; 0x44e0
   1146e:	f2c0 0002 	movt	r0, #2
   11472:	4621      	mov	r1, r4
   11474:	2201      	movs	r2, #1
   11476:	f7ff ea68 	blx	10948 <__ubsan_handle_add_overflow@plt>
   1147a:	637d      	str	r5, [r7, #52]	; 0x34
   1147c:	f242 70a4 	movw	r0, #10148	; 0x27a4
   11480:	f2c0 0001 	movt	r0, #1
   11484:	4621      	mov	r1, r4
   11486:	f7ff ea66 	blx	10954 <printf@plt>
    {
        wr[0] |= BURST_CMD_BIT;
    }

    GPIO_CLR = 1<<(GPIO_CHIP_SEL);
    while(GET_GPIO(GPIO_RDY))
   1148a:	f644 4300 	movw	r3, #19456	; 0x4c00
   1148e:	f2c0 0302 	movt	r3, #2
   11492:	681b      	ldr	r3, [r3, #0]
   11494:	f103 0434 	add.w	r4, r3, #52	; 0x34
   11498:	2c00      	cmp	r4, #0
   1149a:	d106      	bne.n	114aa <read_reg+0x136>
   1149c:	f244 4068 	movw	r0, #17512	; 0x4468
   114a0:	f2c0 0002 	movt	r0, #2
   114a4:	2100      	movs	r1, #0
   114a6:	f7ff ea6e 	blx	10984 <__ubsan_handle_type_mismatch@plt>
   114aa:	6823      	ldr	r3, [r4, #0]
   114ac:	f003 7300 	and.w	r3, r3, #33554432	; 0x2000000
   114b0:	2b00      	cmp	r3, #0
   114b2:	d1ce      	bne.n	11452 <read_reg+0xde>
    {
        int i = 0;
        printf("Waiting for Chiprdy ....%d\n", i++);
    }

    tr.tx_buf = (unsigned long)wr;
   114b4:	6bfb      	ldr	r3, [r7, #60]	; 0x3c
   114b6:	461a      	mov	r2, r3
   114b8:	f04f 0300 	mov.w	r3, #0
   114bc:	e9c7 2304 	strd	r2, r3, [r7, #16]
    tr.rx_buf = (unsigned long)rd;
   114c0:	6bbb      	ldr	r3, [r7, #56]	; 0x38
   114c2:	461a      	mov	r2, r3
   114c4:	f04f 0300 	mov.w	r3, #0
   114c8:	e9c7 2306 	strd	r2, r3, [r7, #24]
    tr.len = N_RESP_BYTES;
   114cc:	2302      	movs	r3, #2
   114ce:	623b      	str	r3, [r7, #32]
    tr.delay_usecs = 90;
   114d0:	235a      	movs	r3, #90	; 0x5a
   114d2:	853b      	strh	r3, [r7, #40]	; 0x28
    tr.speed_hz = SPI_SPEED;
   114d4:	f644 3340 	movw	r3, #19264	; 0x4b40
   114d8:	f2c0 034c 	movt	r3, #76	; 0x4c
   114dc:	627b      	str	r3, [r7, #36]	; 0x24
    tr.bits_per_word = 8;
   114de:	2308      	movs	r3, #8
   114e0:	f887 302a 	strb.w	r3, [r7, #42]	; 0x2a
    tr.cs_change = 0;
   114e4:	2300      	movs	r3, #0
   114e6:	f887 302b 	strb.w	r3, [r7, #43]	; 0x2b

    ret = ioctl(fd, SPI_IOC_MESSAGE(1), &tr);
   114ea:	f107 0310 	add.w	r3, r7, #16
   114ee:	68f8      	ldr	r0, [r7, #12]
   114f0:	f44f 41d6 	mov.w	r1, #27392	; 0x6b00
   114f4:	f2c4 0120 	movt	r1, #16416	; 0x4020
   114f8:	461a      	mov	r2, r3
   114fa:	f7ff ea20 	blx	1093c <ioctl@plt>
   114fe:	6338      	str	r0, [r7, #48]	; 0x30
    if (ret < 1)
   11500:	6b3b      	ldr	r3, [r7, #48]	; 0x30
   11502:	2b00      	cmp	r3, #0
   11504:	dc05      	bgt.n	11512 <read_reg+0x19e>
        perror("can't send spi message");
   11506:	f242 70c0 	movw	r0, #10176	; 0x27c0
   1150a:	f2c0 0001 	movt	r0, #1
   1150e:	f7ff e9fe 	blx	1090c <perror@plt>
#if 0
    for (ret = 0; ret < tr.len; ret++) {
        printf("%02X ", rd[ret]);
    }
#endif
    GPIO_SET = 1 << (GPIO_CHIP_SEL);
   11512:	f644 4300 	movw	r3, #19456	; 0x4c00
   11516:	f2c0 0302 	movt	r3, #2
   1151a:	681b      	ldr	r3, [r3, #0]
   1151c:	f103 041c 	add.w	r4, r3, #28
   11520:	2c00      	cmp	r4, #0
   11522:	d106      	bne.n	11532 <read_reg+0x1be>
   11524:	f244 4080 	movw	r0, #17536	; 0x4480
   11528:	f2c0 0002 	movt	r0, #2
   1152c:	2100      	movs	r1, #0
   1152e:	f7ff ea2a 	blx	10984 <__ubsan_handle_type_mismatch@plt>
   11532:	f44f 0380 	mov.w	r3, #4194304	; 0x400000
   11536:	6023      	str	r3, [r4, #0]
    if (status)
   11538:	687b      	ldr	r3, [r7, #4]
   1153a:	2b00      	cmp	r3, #0
   1153c:	d018      	beq.n	11570 <read_reg+0x1fc>
        status[0] = rd[0];
   1153e:	6bbb      	ldr	r3, [r7, #56]	; 0x38
   11540:	2b00      	cmp	r3, #0
   11542:	d106      	bne.n	11552 <read_reg+0x1de>
   11544:	f244 4098 	movw	r0, #17560	; 0x4498
   11548:	f2c0 0002 	movt	r0, #2
   1154c:	2100      	movs	r1, #0
   1154e:	f7ff ea1a 	blx	10984 <__ubsan_handle_type_mismatch@plt>
   11552:	6bbb      	ldr	r3, [r7, #56]	; 0x38
   11554:	781c      	ldrb	r4, [r3, #0]
   11556:	687b      	ldr	r3, [r7, #4]
   11558:	2b00      	cmp	r3, #0
   1155a:	d106      	bne.n	1156a <read_reg+0x1f6>
   1155c:	f244 40b0 	movw	r0, #17584	; 0x44b0
   11560:	f2c0 0002 	movt	r0, #2
   11564:	2100      	movs	r1, #0
   11566:	f7ff ea0e 	blx	10984 <__ubsan_handle_type_mismatch@plt>
   1156a:	687b      	ldr	r3, [r7, #4]
   1156c:	4622      	mov	r2, r4
   1156e:	701a      	strb	r2, [r3, #0]
    return rd[1];
   11570:	6bbb      	ldr	r3, [r7, #56]	; 0x38
   11572:	2b00      	cmp	r3, #0
   11574:	d106      	bne.n	11584 <read_reg+0x210>
   11576:	f244 40c8 	movw	r0, #17608	; 0x44c8
   1157a:	f2c0 0002 	movt	r0, #2
   1157e:	2100      	movs	r1, #0
   11580:	f7ff ea00 	blx	10984 <__ubsan_handle_type_mismatch@plt>
   11584:	6bbb      	ldr	r3, [r7, #56]	; 0x38
   11586:	785b      	ldrb	r3, [r3, #1]
}
   11588:	4618      	mov	r0, r3
   1158a:	3740      	adds	r7, #64	; 0x40
   1158c:	46bd      	mov	sp, r7
   1158e:	bdb0      	pop	{r4, r5, r7, pc}

00011590 <strobe_cmd>:

void strobe_cmd(int fd, uint8_t cmd, uint8_t *response)
{
   11590:	b580      	push	{r7, lr}
   11592:	b084      	sub	sp, #16
   11594:	af00      	add	r7, sp, #0
   11596:	60f8      	str	r0, [r7, #12]
   11598:	460b      	mov	r3, r1
   1159a:	607a      	str	r2, [r7, #4]
   1159c:	72fb      	strb	r3, [r7, #11]
    assert(cmd <= 0x3d && cmd >= 0x30);        
   1159e:	7afb      	ldrb	r3, [r7, #11]
   115a0:	2b3d      	cmp	r3, #61	; 0x3d
   115a2:	d802      	bhi.n	115aa <strobe_cmd+0x1a>
   115a4:	7afb      	ldrb	r3, [r7, #11]
   115a6:	2b2f      	cmp	r3, #47	; 0x2f
   115a8:	d80f      	bhi.n	115ca <strobe_cmd+0x3a>
   115aa:	f242 70e8 	movw	r0, #10216	; 0x27e8
   115ae:	f2c0 0001 	movt	r0, #1
   115b2:	f242 7198 	movw	r1, #10136	; 0x2798
   115b6:	f2c0 0101 	movt	r1, #1
   115ba:	f240 2246 	movw	r2, #582	; 0x246
   115be:	f642 13b4 	movw	r3, #10676	; 0x29b4
   115c2:	f2c0 0301 	movt	r3, #1
   115c6:	f7ff e9a8 	blx	10918 <__assert_fail@plt>
    write_reg(fd, cmd, 0, response); 
   115ca:	7afb      	ldrb	r3, [r7, #11]
   115cc:	68f8      	ldr	r0, [r7, #12]
   115ce:	4619      	mov	r1, r3
   115d0:	2200      	movs	r2, #0
   115d2:	687b      	ldr	r3, [r7, #4]
   115d4:	f7ff fb68 	bl	10ca8 <write_reg>
     
}
   115d8:	3710      	adds	r7, #16
   115da:	46bd      	mov	sp, r7
   115dc:	bd80      	pop	{r7, pc}
   115de:	bf00      	nop

000115e0 <cfg_gpio>:


void cfg_gpio()
{
   115e0:	b5b0      	push	{r4, r5, r7, lr}
   115e2:	af00      	add	r7, sp, #0
    INP_GPIO(GPIO_CHIP_SEL); // must use INP_GPIO before we can use OUT_GPIO
   115e4:	f644 4300 	movw	r3, #19456	; 0x4c00
   115e8:	f2c0 0302 	movt	r3, #2
   115ec:	681b      	ldr	r3, [r3, #0]
   115ee:	f103 0408 	add.w	r4, r3, #8
   115f2:	f644 4300 	movw	r3, #19456	; 0x4c00
   115f6:	f2c0 0302 	movt	r3, #2
   115fa:	681b      	ldr	r3, [r3, #0]
   115fc:	f103 0508 	add.w	r5, r3, #8
   11600:	2d00      	cmp	r5, #0
   11602:	d106      	bne.n	11612 <cfg_gpio+0x32>
   11604:	f244 40f0 	movw	r0, #17648	; 0x44f0
   11608:	f2c0 0002 	movt	r0, #2
   1160c:	2100      	movs	r1, #0
   1160e:	f7ff e9ba 	blx	10984 <__ubsan_handle_type_mismatch@plt>
   11612:	682b      	ldr	r3, [r5, #0]
   11614:	f423 75e0 	bic.w	r5, r3, #448	; 0x1c0
   11618:	2c00      	cmp	r4, #0
   1161a:	d106      	bne.n	1162a <cfg_gpio+0x4a>
   1161c:	f244 5008 	movw	r0, #17672	; 0x4508
   11620:	f2c0 0002 	movt	r0, #2
   11624:	2100      	movs	r1, #0
   11626:	f7ff e9ae 	blx	10984 <__ubsan_handle_type_mismatch@plt>
   1162a:	6025      	str	r5, [r4, #0]
    OUT_GPIO(GPIO_CHIP_SEL);
   1162c:	f644 4300 	movw	r3, #19456	; 0x4c00
   11630:	f2c0 0302 	movt	r3, #2
   11634:	681b      	ldr	r3, [r3, #0]
   11636:	f103 0408 	add.w	r4, r3, #8
   1163a:	f644 4300 	movw	r3, #19456	; 0x4c00
   1163e:	f2c0 0302 	movt	r3, #2
   11642:	681b      	ldr	r3, [r3, #0]
   11644:	f103 0508 	add.w	r5, r3, #8
   11648:	2d00      	cmp	r5, #0
   1164a:	d106      	bne.n	1165a <cfg_gpio+0x7a>
   1164c:	f244 5020 	movw	r0, #17696	; 0x4520
   11650:	f2c0 0002 	movt	r0, #2
   11654:	2100      	movs	r1, #0
   11656:	f7ff e996 	blx	10984 <__ubsan_handle_type_mismatch@plt>
   1165a:	682b      	ldr	r3, [r5, #0]
   1165c:	f043 0540 	orr.w	r5, r3, #64	; 0x40
   11660:	2c00      	cmp	r4, #0
   11662:	d106      	bne.n	11672 <cfg_gpio+0x92>
   11664:	f244 5038 	movw	r0, #17720	; 0x4538
   11668:	f2c0 0002 	movt	r0, #2
   1166c:	2100      	movs	r1, #0
   1166e:	f7ff e98a 	blx	10984 <__ubsan_handle_type_mismatch@plt>
   11672:	6025      	str	r5, [r4, #0]
    GPIO_SET = 1<<GPIO_CHIP_SEL;
   11674:	f644 4300 	movw	r3, #19456	; 0x4c00
   11678:	f2c0 0302 	movt	r3, #2
   1167c:	681b      	ldr	r3, [r3, #0]
   1167e:	f103 041c 	add.w	r4, r3, #28
   11682:	2c00      	cmp	r4, #0
   11684:	d106      	bne.n	11694 <cfg_gpio+0xb4>
   11686:	f244 5050 	movw	r0, #17744	; 0x4550
   1168a:	f2c0 0002 	movt	r0, #2
   1168e:	2100      	movs	r1, #0
   11690:	f7ff e978 	blx	10984 <__ubsan_handle_type_mismatch@plt>
   11694:	f44f 0380 	mov.w	r3, #4194304	; 0x400000
   11698:	6023      	str	r3, [r4, #0]

    INP_GPIO(GPIO_RDY); // must use INP_GPIO before we can use OUT_GPIO
   1169a:	f644 4300 	movw	r3, #19456	; 0x4c00
   1169e:	f2c0 0302 	movt	r3, #2
   116a2:	681b      	ldr	r3, [r3, #0]
   116a4:	f103 0408 	add.w	r4, r3, #8
   116a8:	f644 4300 	movw	r3, #19456	; 0x4c00
   116ac:	f2c0 0302 	movt	r3, #2
   116b0:	681b      	ldr	r3, [r3, #0]
   116b2:	f103 0508 	add.w	r5, r3, #8
   116b6:	2d00      	cmp	r5, #0
   116b8:	d106      	bne.n	116c8 <cfg_gpio+0xe8>
   116ba:	f244 5068 	movw	r0, #17768	; 0x4568
   116be:	f2c0 0002 	movt	r0, #2
   116c2:	2100      	movs	r1, #0
   116c4:	f7ff e95e 	blx	10984 <__ubsan_handle_type_mismatch@plt>
   116c8:	682b      	ldr	r3, [r5, #0]
   116ca:	f423 3560 	bic.w	r5, r3, #229376	; 0x38000
   116ce:	2c00      	cmp	r4, #0
   116d0:	d106      	bne.n	116e0 <cfg_gpio+0x100>
   116d2:	f244 5080 	movw	r0, #17792	; 0x4580
   116d6:	f2c0 0002 	movt	r0, #2
   116da:	2100      	movs	r1, #0
   116dc:	f7ff e952 	blx	10984 <__ubsan_handle_type_mismatch@plt>
   116e0:	6025      	str	r5, [r4, #0]

    INP_GPIO(GPIO_GD0);
   116e2:	f644 4300 	movw	r3, #19456	; 0x4c00
   116e6:	f2c0 0302 	movt	r3, #2
   116ea:	681b      	ldr	r3, [r3, #0]
   116ec:	f103 0408 	add.w	r4, r3, #8
   116f0:	f644 4300 	movw	r3, #19456	; 0x4c00
   116f4:	f2c0 0302 	movt	r3, #2
   116f8:	681b      	ldr	r3, [r3, #0]
   116fa:	f103 0508 	add.w	r5, r3, #8
   116fe:	2d00      	cmp	r5, #0
   11700:	d106      	bne.n	11710 <cfg_gpio+0x130>
   11702:	f244 5098 	movw	r0, #17816	; 0x4598
   11706:	f2c0 0002 	movt	r0, #2
   1170a:	2100      	movs	r1, #0
   1170c:	f7ff e93a 	blx	10984 <__ubsan_handle_type_mismatch@plt>
   11710:	682b      	ldr	r3, [r5, #0]
   11712:	f423 45e0 	bic.w	r5, r3, #28672	; 0x7000
   11716:	2c00      	cmp	r4, #0
   11718:	d106      	bne.n	11728 <cfg_gpio+0x148>
   1171a:	f244 50b0 	movw	r0, #17840	; 0x45b0
   1171e:	f2c0 0002 	movt	r0, #2
   11722:	2100      	movs	r1, #0
   11724:	f7ff e92e 	blx	10984 <__ubsan_handle_type_mismatch@plt>
   11728:	6025      	str	r5, [r4, #0]
    INP_GPIO(GPIO_GD2);
   1172a:	f644 4300 	movw	r3, #19456	; 0x4c00
   1172e:	f2c0 0302 	movt	r3, #2
   11732:	681b      	ldr	r3, [r3, #0]
   11734:	f103 0408 	add.w	r4, r3, #8
   11738:	f644 4300 	movw	r3, #19456	; 0x4c00
   1173c:	f2c0 0302 	movt	r3, #2
   11740:	681b      	ldr	r3, [r3, #0]
   11742:	f103 0508 	add.w	r5, r3, #8
   11746:	2d00      	cmp	r5, #0
   11748:	d106      	bne.n	11758 <cfg_gpio+0x178>
   1174a:	f244 50c8 	movw	r0, #17864	; 0x45c8
   1174e:	f2c0 0002 	movt	r0, #2
   11752:	2100      	movs	r1, #0
   11754:	f7ff e916 	blx	10984 <__ubsan_handle_type_mismatch@plt>
   11758:	682b      	ldr	r3, [r5, #0]
   1175a:	f423 6560 	bic.w	r5, r3, #3584	; 0xe00
   1175e:	2c00      	cmp	r4, #0
   11760:	d106      	bne.n	11770 <cfg_gpio+0x190>
   11762:	f244 50e0 	movw	r0, #17888	; 0x45e0
   11766:	f2c0 0002 	movt	r0, #2
   1176a:	2100      	movs	r1, #0
   1176c:	f7ff e90a 	blx	10984 <__ubsan_handle_type_mismatch@plt>
   11770:	6025      	str	r5, [r4, #0]
}
   11772:	bdb0      	pop	{r4, r5, r7, pc}

00011774 <delay_loop>:

void delay_loop(int count)
{
   11774:	b5b0      	push	{r4, r5, r7, lr}
   11776:	b084      	sub	sp, #16
   11778:	af00      	add	r7, sp, #0
   1177a:	6078      	str	r0, [r7, #4]
    volatile int x = count;
   1177c:	687b      	ldr	r3, [r7, #4]
   1177e:	60fb      	str	r3, [r7, #12]
    while(x--)
   11780:	bf00      	nop
   11782:	68fc      	ldr	r4, [r7, #12]
   11784:	1e65      	subs	r5, r4, #1
   11786:	f04f 33ff 	mov.w	r3, #4294967295
   1178a:	2b00      	cmp	r3, #0
   1178c:	db02      	blt.n	11794 <delay_loop+0x20>
   1178e:	42a5      	cmp	r5, r4
   11790:	da0b      	bge.n	117aa <delay_loop+0x36>
   11792:	e001      	b.n	11798 <delay_loop+0x24>
   11794:	42a5      	cmp	r5, r4
   11796:	dd08      	ble.n	117aa <delay_loop+0x36>
   11798:	f244 50f8 	movw	r0, #17912	; 0x45f8
   1179c:	f2c0 0002 	movt	r0, #2
   117a0:	4621      	mov	r1, r4
   117a2:	f04f 32ff 	mov.w	r2, #4294967295
   117a6:	f7ff e8d0 	blx	10948 <__ubsan_handle_add_overflow@plt>
   117aa:	462b      	mov	r3, r5
   117ac:	60fb      	str	r3, [r7, #12]
   117ae:	2c00      	cmp	r4, #0
   117b0:	d1e7      	bne.n	11782 <delay_loop+0xe>
    ;

}
   117b2:	3710      	adds	r7, #16
   117b4:	46bd      	mov	sp, r7
   117b6:	bdb0      	pop	{r4, r5, r7, pc}

000117b8 <cc1101_reset>:

void cc1101_reset()
{
   117b8:	b5b0      	push	{r4, r5, r7, lr}
   117ba:	af00      	add	r7, sp, #0
    /*SCK HIGH*/
    INP_GPIO(GPIO_SCK); // must use INP_GPIO before we can use OUT_GPIO
   117bc:	f644 4300 	movw	r3, #19456	; 0x4c00
   117c0:	f2c0 0302 	movt	r3, #2
   117c4:	681b      	ldr	r3, [r3, #0]
   117c6:	1d1c      	adds	r4, r3, #4
   117c8:	f644 4300 	movw	r3, #19456	; 0x4c00
   117cc:	f2c0 0302 	movt	r3, #2
   117d0:	681b      	ldr	r3, [r3, #0]
   117d2:	1d1d      	adds	r5, r3, #4
   117d4:	2d00      	cmp	r5, #0
   117d6:	d106      	bne.n	117e6 <cc1101_reset+0x2e>
   117d8:	f244 6008 	movw	r0, #17928	; 0x4608
   117dc:	f2c0 0002 	movt	r0, #2
   117e0:	2100      	movs	r1, #0
   117e2:	f7ff e8d0 	blx	10984 <__ubsan_handle_type_mismatch@plt>
   117e6:	682b      	ldr	r3, [r5, #0]
   117e8:	f023 0538 	bic.w	r5, r3, #56	; 0x38
   117ec:	2c00      	cmp	r4, #0
   117ee:	d106      	bne.n	117fe <cc1101_reset+0x46>
   117f0:	f244 6020 	movw	r0, #17952	; 0x4620
   117f4:	f2c0 0002 	movt	r0, #2
   117f8:	2100      	movs	r1, #0
   117fa:	f7ff e8c4 	blx	10984 <__ubsan_handle_type_mismatch@plt>
   117fe:	6025      	str	r5, [r4, #0]
    OUT_GPIO(GPIO_SCK);
   11800:	f644 4300 	movw	r3, #19456	; 0x4c00
   11804:	f2c0 0302 	movt	r3, #2
   11808:	681b      	ldr	r3, [r3, #0]
   1180a:	1d1c      	adds	r4, r3, #4
   1180c:	f644 4300 	movw	r3, #19456	; 0x4c00
   11810:	f2c0 0302 	movt	r3, #2
   11814:	681b      	ldr	r3, [r3, #0]
   11816:	1d1d      	adds	r5, r3, #4
   11818:	2d00      	cmp	r5, #0
   1181a:	d106      	bne.n	1182a <cc1101_reset+0x72>
   1181c:	f244 6038 	movw	r0, #17976	; 0x4638
   11820:	f2c0 0002 	movt	r0, #2
   11824:	2100      	movs	r1, #0
   11826:	f7ff e8ae 	blx	10984 <__ubsan_handle_type_mismatch@plt>
   1182a:	682b      	ldr	r3, [r5, #0]
   1182c:	f043 0508 	orr.w	r5, r3, #8
   11830:	2c00      	cmp	r4, #0
   11832:	d106      	bne.n	11842 <cc1101_reset+0x8a>
   11834:	f244 6050 	movw	r0, #18000	; 0x4650
   11838:	f2c0 0002 	movt	r0, #2
   1183c:	2100      	movs	r1, #0
   1183e:	f7ff e8a2 	blx	10984 <__ubsan_handle_type_mismatch@plt>
   11842:	6025      	str	r5, [r4, #0]
    GPIO_SET = 1<<GPIO_SCK;
   11844:	f644 4300 	movw	r3, #19456	; 0x4c00
   11848:	f2c0 0302 	movt	r3, #2
   1184c:	681b      	ldr	r3, [r3, #0]
   1184e:	f103 041c 	add.w	r4, r3, #28
   11852:	2c00      	cmp	r4, #0
   11854:	d106      	bne.n	11864 <cc1101_reset+0xac>
   11856:	f244 6068 	movw	r0, #18024	; 0x4668
   1185a:	f2c0 0002 	movt	r0, #2
   1185e:	2100      	movs	r1, #0
   11860:	f7ff e890 	blx	10984 <__ubsan_handle_type_mismatch@plt>
   11864:	f44f 6300 	mov.w	r3, #2048	; 0x800
   11868:	6023      	str	r3, [r4, #0]

    /*MOSI LOW */
    INP_GPIO(GPIO_MOSI); // must use INP_GPIO before we can use OUT_GPIO
   1186a:	f644 4300 	movw	r3, #19456	; 0x4c00
   1186e:	f2c0 0302 	movt	r3, #2
   11872:	681b      	ldr	r3, [r3, #0]
   11874:	1d1c      	adds	r4, r3, #4
   11876:	f644 4300 	movw	r3, #19456	; 0x4c00
   1187a:	f2c0 0302 	movt	r3, #2
   1187e:	681b      	ldr	r3, [r3, #0]
   11880:	1d1d      	adds	r5, r3, #4
   11882:	2d00      	cmp	r5, #0
   11884:	d106      	bne.n	11894 <cc1101_reset+0xdc>
   11886:	f244 6080 	movw	r0, #18048	; 0x4680
   1188a:	f2c0 0002 	movt	r0, #2
   1188e:	2100      	movs	r1, #0
   11890:	f7ff e878 	blx	10984 <__ubsan_handle_type_mismatch@plt>
   11894:	682b      	ldr	r3, [r5, #0]
   11896:	f023 0507 	bic.w	r5, r3, #7
   1189a:	2c00      	cmp	r4, #0
   1189c:	d106      	bne.n	118ac <cc1101_reset+0xf4>
   1189e:	f244 6098 	movw	r0, #18072	; 0x4698
   118a2:	f2c0 0002 	movt	r0, #2
   118a6:	2100      	movs	r1, #0
   118a8:	f7ff e86c 	blx	10984 <__ubsan_handle_type_mismatch@plt>
   118ac:	6025      	str	r5, [r4, #0]
    OUT_GPIO(GPIO_MOSI);
   118ae:	f644 4300 	movw	r3, #19456	; 0x4c00
   118b2:	f2c0 0302 	movt	r3, #2
   118b6:	681b      	ldr	r3, [r3, #0]
   118b8:	1d1c      	adds	r4, r3, #4
   118ba:	f644 4300 	movw	r3, #19456	; 0x4c00
   118be:	f2c0 0302 	movt	r3, #2
   118c2:	681b      	ldr	r3, [r3, #0]
   118c4:	1d1d      	adds	r5, r3, #4
   118c6:	2d00      	cmp	r5, #0
   118c8:	d106      	bne.n	118d8 <cc1101_reset+0x120>
   118ca:	f244 60b0 	movw	r0, #18096	; 0x46b0
   118ce:	f2c0 0002 	movt	r0, #2
   118d2:	2100      	movs	r1, #0
   118d4:	f7ff e856 	blx	10984 <__ubsan_handle_type_mismatch@plt>
   118d8:	682b      	ldr	r3, [r5, #0]
   118da:	f043 0501 	orr.w	r5, r3, #1
   118de:	2c00      	cmp	r4, #0
   118e0:	d106      	bne.n	118f0 <cc1101_reset+0x138>
   118e2:	f244 60c8 	movw	r0, #18120	; 0x46c8
   118e6:	f2c0 0002 	movt	r0, #2
   118ea:	2100      	movs	r1, #0
   118ec:	f7ff e84a 	blx	10984 <__ubsan_handle_type_mismatch@plt>
   118f0:	6025      	str	r5, [r4, #0]
    GPIO_CLR = 1<<GPIO_MOSI;
   118f2:	f644 4300 	movw	r3, #19456	; 0x4c00
   118f6:	f2c0 0302 	movt	r3, #2
   118fa:	681b      	ldr	r3, [r3, #0]
   118fc:	f103 0428 	add.w	r4, r3, #40	; 0x28
   11900:	2c00      	cmp	r4, #0
   11902:	d106      	bne.n	11912 <cc1101_reset+0x15a>
   11904:	f244 60e0 	movw	r0, #18144	; 0x46e0
   11908:	f2c0 0002 	movt	r0, #2
   1190c:	2100      	movs	r1, #0
   1190e:	f7ff e83a 	blx	10984 <__ubsan_handle_type_mismatch@plt>
   11912:	f44f 6380 	mov.w	r3, #1024	; 0x400
   11916:	6023      	str	r3, [r4, #0]

    GPIO_CLR = 1<<(GPIO_CHIP_SEL);
   11918:	f644 4300 	movw	r3, #19456	; 0x4c00
   1191c:	f2c0 0302 	movt	r3, #2
   11920:	681b      	ldr	r3, [r3, #0]
   11922:	f103 0428 	add.w	r4, r3, #40	; 0x28
   11926:	2c00      	cmp	r4, #0
   11928:	d106      	bne.n	11938 <cc1101_reset+0x180>
   1192a:	f244 60f8 	movw	r0, #18168	; 0x46f8
   1192e:	f2c0 0002 	movt	r0, #2
   11932:	2100      	movs	r1, #0
   11934:	f7ff e826 	blx	10984 <__ubsan_handle_type_mismatch@plt>
   11938:	f44f 0380 	mov.w	r3, #4194304	; 0x400000
   1193c:	6023      	str	r3, [r4, #0]
    delay_loop(100);
   1193e:	2064      	movs	r0, #100	; 0x64
   11940:	f7ff ff18 	bl	11774 <delay_loop>
    GPIO_SET = 1<<(GPIO_CHIP_SEL);
   11944:	f644 4300 	movw	r3, #19456	; 0x4c00
   11948:	f2c0 0302 	movt	r3, #2
   1194c:	681b      	ldr	r3, [r3, #0]
   1194e:	f103 041c 	add.w	r4, r3, #28
   11952:	2c00      	cmp	r4, #0
   11954:	d106      	bne.n	11964 <cc1101_reset+0x1ac>
   11956:	f244 7010 	movw	r0, #18192	; 0x4710
   1195a:	f2c0 0002 	movt	r0, #2
   1195e:	2100      	movs	r1, #0
   11960:	f7ff e810 	blx	10984 <__ubsan_handle_type_mismatch@plt>
   11964:	f44f 0380 	mov.w	r3, #4194304	; 0x400000
   11968:	6023      	str	r3, [r4, #0]
    delay_loop(8000);
   1196a:	f44f 50fa 	mov.w	r0, #8000	; 0x1f40
   1196e:	f7ff ff01 	bl	11774 <delay_loop>

    GPIO_CLR = 1<<(GPIO_CHIP_SEL);
   11972:	f644 4300 	movw	r3, #19456	; 0x4c00
   11976:	f2c0 0302 	movt	r3, #2
   1197a:	681b      	ldr	r3, [r3, #0]
   1197c:	f103 0428 	add.w	r4, r3, #40	; 0x28
   11980:	2c00      	cmp	r4, #0
   11982:	d106      	bne.n	11992 <cc1101_reset+0x1da>
   11984:	f244 7028 	movw	r0, #18216	; 0x4728
   11988:	f2c0 0002 	movt	r0, #2
   1198c:	2100      	movs	r1, #0
   1198e:	f7fe effa 	blx	10984 <__ubsan_handle_type_mismatch@plt>
   11992:	f44f 0380 	mov.w	r3, #4194304	; 0x400000
   11996:	6023      	str	r3, [r4, #0]

    while(GET_GPIO(GPIO_RDY))
   11998:	e005      	b.n	119a6 <cc1101_reset+0x1ee>
        printf("Waiting for GPIO_RDY");
   1199a:	f642 0004 	movw	r0, #10244	; 0x2804
   1199e:	f2c0 0001 	movt	r0, #1
   119a2:	f7fe efd8 	blx	10954 <printf@plt>
    GPIO_SET = 1<<(GPIO_CHIP_SEL);
    delay_loop(8000);

    GPIO_CLR = 1<<(GPIO_CHIP_SEL);

    while(GET_GPIO(GPIO_RDY))
   119a6:	f644 4300 	movw	r3, #19456	; 0x4c00
   119aa:	f2c0 0302 	movt	r3, #2
   119ae:	681b      	ldr	r3, [r3, #0]
   119b0:	f103 0434 	add.w	r4, r3, #52	; 0x34
   119b4:	2c00      	cmp	r4, #0
   119b6:	d106      	bne.n	119c6 <cc1101_reset+0x20e>
   119b8:	f244 7040 	movw	r0, #18240	; 0x4740
   119bc:	f2c0 0002 	movt	r0, #2
   119c0:	2100      	movs	r1, #0
   119c2:	f7fe efe0 	blx	10984 <__ubsan_handle_type_mismatch@plt>
   119c6:	6823      	ldr	r3, [r4, #0]
   119c8:	f003 7300 	and.w	r3, r3, #33554432	; 0x2000000
   119cc:	2b00      	cmp	r3, #0
   119ce:	d1e4      	bne.n	1199a <cc1101_reset+0x1e2>
        printf("Waiting for GPIO_RDY");

    INP_GPIO(GPIO_SCK); // must use INP_GPIO before we can use OUT_GPIO
   119d0:	f644 4300 	movw	r3, #19456	; 0x4c00
   119d4:	f2c0 0302 	movt	r3, #2
   119d8:	681b      	ldr	r3, [r3, #0]
   119da:	1d1c      	adds	r4, r3, #4
   119dc:	f644 4300 	movw	r3, #19456	; 0x4c00
   119e0:	f2c0 0302 	movt	r3, #2
   119e4:	681b      	ldr	r3, [r3, #0]
   119e6:	1d1d      	adds	r5, r3, #4
   119e8:	2d00      	cmp	r5, #0
   119ea:	d106      	bne.n	119fa <cc1101_reset+0x242>
   119ec:	f244 7058 	movw	r0, #18264	; 0x4758
   119f0:	f2c0 0002 	movt	r0, #2
   119f4:	2100      	movs	r1, #0
   119f6:	f7fe efc6 	blx	10984 <__ubsan_handle_type_mismatch@plt>
   119fa:	682b      	ldr	r3, [r5, #0]
   119fc:	f023 0538 	bic.w	r5, r3, #56	; 0x38
   11a00:	2c00      	cmp	r4, #0
   11a02:	d106      	bne.n	11a12 <cc1101_reset+0x25a>
   11a04:	f244 7070 	movw	r0, #18288	; 0x4770
   11a08:	f2c0 0002 	movt	r0, #2
   11a0c:	2100      	movs	r1, #0
   11a0e:	f7fe efba 	blx	10984 <__ubsan_handle_type_mismatch@plt>
   11a12:	6025      	str	r5, [r4, #0]
    SET_GPIO_ALT(GPIO_SCK,0);
   11a14:	f644 4300 	movw	r3, #19456	; 0x4c00
   11a18:	f2c0 0302 	movt	r3, #2
   11a1c:	681b      	ldr	r3, [r3, #0]
   11a1e:	1d1c      	adds	r4, r3, #4
   11a20:	f644 4300 	movw	r3, #19456	; 0x4c00
   11a24:	f2c0 0302 	movt	r3, #2
   11a28:	681b      	ldr	r3, [r3, #0]
   11a2a:	1d1d      	adds	r5, r3, #4
   11a2c:	2d00      	cmp	r5, #0
   11a2e:	d106      	bne.n	11a3e <cc1101_reset+0x286>
   11a30:	f244 7088 	movw	r0, #18312	; 0x4788
   11a34:	f2c0 0002 	movt	r0, #2
   11a38:	2100      	movs	r1, #0
   11a3a:	f7fe efa4 	blx	10984 <__ubsan_handle_type_mismatch@plt>
   11a3e:	682b      	ldr	r3, [r5, #0]
   11a40:	f043 0520 	orr.w	r5, r3, #32
   11a44:	2c00      	cmp	r4, #0
   11a46:	d106      	bne.n	11a56 <cc1101_reset+0x29e>
   11a48:	f244 70a0 	movw	r0, #18336	; 0x47a0
   11a4c:	f2c0 0002 	movt	r0, #2
   11a50:	2100      	movs	r1, #0
   11a52:	f7fe ef98 	blx	10984 <__ubsan_handle_type_mismatch@plt>
   11a56:	6025      	str	r5, [r4, #0]

    INP_GPIO(GPIO_MOSI); // must use INP_GPIO before we can use OUT_GPIO
   11a58:	f644 4300 	movw	r3, #19456	; 0x4c00
   11a5c:	f2c0 0302 	movt	r3, #2
   11a60:	681b      	ldr	r3, [r3, #0]
   11a62:	1d1c      	adds	r4, r3, #4
   11a64:	f644 4300 	movw	r3, #19456	; 0x4c00
   11a68:	f2c0 0302 	movt	r3, #2
   11a6c:	681b      	ldr	r3, [r3, #0]
   11a6e:	1d1d      	adds	r5, r3, #4
   11a70:	2d00      	cmp	r5, #0
   11a72:	d106      	bne.n	11a82 <cc1101_reset+0x2ca>
   11a74:	f244 70b8 	movw	r0, #18360	; 0x47b8
   11a78:	f2c0 0002 	movt	r0, #2
   11a7c:	2100      	movs	r1, #0
   11a7e:	f7fe ef82 	blx	10984 <__ubsan_handle_type_mismatch@plt>
   11a82:	682b      	ldr	r3, [r5, #0]
   11a84:	f023 0507 	bic.w	r5, r3, #7
   11a88:	2c00      	cmp	r4, #0
   11a8a:	d106      	bne.n	11a9a <cc1101_reset+0x2e2>
   11a8c:	f244 70d0 	movw	r0, #18384	; 0x47d0
   11a90:	f2c0 0002 	movt	r0, #2
   11a94:	2100      	movs	r1, #0
   11a96:	f7fe ef76 	blx	10984 <__ubsan_handle_type_mismatch@plt>
   11a9a:	6025      	str	r5, [r4, #0]
    SET_GPIO_ALT(GPIO_MOSI, 0);
   11a9c:	f644 4300 	movw	r3, #19456	; 0x4c00
   11aa0:	f2c0 0302 	movt	r3, #2
   11aa4:	681b      	ldr	r3, [r3, #0]
   11aa6:	1d1c      	adds	r4, r3, #4
   11aa8:	f644 4300 	movw	r3, #19456	; 0x4c00
   11aac:	f2c0 0302 	movt	r3, #2
   11ab0:	681b      	ldr	r3, [r3, #0]
   11ab2:	1d1d      	adds	r5, r3, #4
   11ab4:	2d00      	cmp	r5, #0
   11ab6:	d106      	bne.n	11ac6 <cc1101_reset+0x30e>
   11ab8:	f244 70e8 	movw	r0, #18408	; 0x47e8
   11abc:	f2c0 0002 	movt	r0, #2
   11ac0:	2100      	movs	r1, #0
   11ac2:	f7fe ef60 	blx	10984 <__ubsan_handle_type_mismatch@plt>
   11ac6:	682b      	ldr	r3, [r5, #0]
   11ac8:	f043 0504 	orr.w	r5, r3, #4
   11acc:	2c00      	cmp	r4, #0
   11ace:	d106      	bne.n	11ade <cc1101_reset+0x326>
   11ad0:	f644 0000 	movw	r0, #18432	; 0x4800
   11ad4:	f2c0 0002 	movt	r0, #2
   11ad8:	2100      	movs	r1, #0
   11ada:	f7fe ef54 	blx	10984 <__ubsan_handle_type_mismatch@plt>
   11ade:	6025      	str	r5, [r4, #0]
}
   11ae0:	bdb0      	pop	{r4, r5, r7, pc}
   11ae2:	bf00      	nop

00011ae4 <cc1101_cfg_band>:

void cc1101_cfg_band(int fd, fset_t fset)
{
   11ae4:	b590      	push	{r4, r7, lr}
   11ae6:	b085      	sub	sp, #20
   11ae8:	af00      	add	r7, sp, #0
   11aea:	6078      	str	r0, [r7, #4]
   11aec:	6039      	str	r1, [r7, #0]
    uint8_t i;
    assert(fset >= ISM_EU && fset < ISM_MAX);
   11aee:	683b      	ldr	r3, [r7, #0]
   11af0:	2b02      	cmp	r3, #2
   11af2:	d90f      	bls.n	11b14 <cc1101_cfg_band+0x30>
   11af4:	f642 001c 	movw	r0, #10268	; 0x281c
   11af8:	f2c0 0001 	movt	r0, #1
   11afc:	f242 7198 	movw	r1, #10136	; 0x2798
   11b00:	f2c0 0101 	movt	r1, #1
   11b04:	f44f 7220 	mov.w	r2, #640	; 0x280
   11b08:	f642 13c0 	movw	r3, #10688	; 0x29c0
   11b0c:	f2c0 0301 	movt	r3, #1
   11b10:	f7fe ef02 	blx	10918 <__assert_fail@plt>
    for ( i = 0; i < sizeof(band_regs)/sizeof(band_regs[0]); i++)
   11b14:	2300      	movs	r3, #0
   11b16:	73fb      	strb	r3, [r7, #15]
   11b18:	e01a      	b.n	11b50 <cc1101_cfg_band+0x6c>
    {
        write_reg(fd, band_regs[i], freq_config[fset][i], NULL);
   11b1a:	7bfa      	ldrb	r2, [r7, #15]
   11b1c:	f244 1324 	movw	r3, #16676	; 0x4124
   11b20:	f2c0 0302 	movt	r3, #2
   11b24:	5c9c      	ldrb	r4, [r3, r2]
   11b26:	7bf8      	ldrb	r0, [r7, #15]
   11b28:	f244 122c 	movw	r2, #16684	; 0x412c
   11b2c:	f2c0 0202 	movt	r2, #2
   11b30:	6839      	ldr	r1, [r7, #0]
   11b32:	460b      	mov	r3, r1
   11b34:	009b      	lsls	r3, r3, #2
   11b36:	440b      	add	r3, r1
   11b38:	4403      	add	r3, r0
   11b3a:	4413      	add	r3, r2
   11b3c:	781b      	ldrb	r3, [r3, #0]
   11b3e:	6878      	ldr	r0, [r7, #4]
   11b40:	4621      	mov	r1, r4
   11b42:	461a      	mov	r2, r3
   11b44:	2300      	movs	r3, #0
   11b46:	f7ff f8af 	bl	10ca8 <write_reg>

void cc1101_cfg_band(int fd, fset_t fset)
{
    uint8_t i;
    assert(fset >= ISM_EU && fset < ISM_MAX);
    for ( i = 0; i < sizeof(band_regs)/sizeof(band_regs[0]); i++)
   11b4a:	7bfb      	ldrb	r3, [r7, #15]
   11b4c:	3301      	adds	r3, #1
   11b4e:	73fb      	strb	r3, [r7, #15]
   11b50:	7bfb      	ldrb	r3, [r7, #15]
   11b52:	2b04      	cmp	r3, #4
   11b54:	d9e1      	bls.n	11b1a <cc1101_cfg_band+0x36>
    {
        write_reg(fd, band_regs[i], freq_config[fset][i], NULL);
    }
    
}
   11b56:	3714      	adds	r7, #20
   11b58:	46bd      	mov	sp, r7
   11b5a:	bd90      	pop	{r4, r7, pc}

00011b5c <cc1101_cfg_regs>:

void cc1101_cfg_regs(int fd)
{
   11b5c:	b580      	push	{r7, lr}
   11b5e:	b084      	sub	sp, #16
   11b60:	af00      	add	r7, sp, #0
   11b62:	6078      	str	r0, [r7, #4]
    uint32_t i;
    for (i = 0; i < sizeof(wbslRadioCfg)/sizeof(wbslRadioCfg[0]); i++)
   11b64:	2300      	movs	r3, #0
   11b66:	60fb      	str	r3, [r7, #12]
   11b68:	e01b      	b.n	11ba2 <cc1101_cfg_regs+0x46>
    {
        uint8_t reg = wbslRadioCfg[i][0];
   11b6a:	f242 637c 	movw	r3, #9852	; 0x267c
   11b6e:	f2c0 0301 	movt	r3, #1
   11b72:	68fa      	ldr	r2, [r7, #12]
   11b74:	f813 3012 	ldrb.w	r3, [r3, r2, lsl #1]
   11b78:	72fb      	strb	r3, [r7, #11]
        uint8_t val = wbslRadioCfg[i][1];
   11b7a:	f242 627c 	movw	r2, #9852	; 0x267c
   11b7e:	f2c0 0201 	movt	r2, #1
   11b82:	68fb      	ldr	r3, [r7, #12]
   11b84:	005b      	lsls	r3, r3, #1
   11b86:	4413      	add	r3, r2
   11b88:	785b      	ldrb	r3, [r3, #1]
   11b8a:	72bb      	strb	r3, [r7, #10]
        write_reg(fd, reg, val, NULL); 
   11b8c:	7afa      	ldrb	r2, [r7, #11]
   11b8e:	7abb      	ldrb	r3, [r7, #10]
   11b90:	6878      	ldr	r0, [r7, #4]
   11b92:	4611      	mov	r1, r2
   11b94:	461a      	mov	r2, r3
   11b96:	2300      	movs	r3, #0
   11b98:	f7ff f886 	bl	10ca8 <write_reg>
}

void cc1101_cfg_regs(int fd)
{
    uint32_t i;
    for (i = 0; i < sizeof(wbslRadioCfg)/sizeof(wbslRadioCfg[0]); i++)
   11b9c:	68fb      	ldr	r3, [r7, #12]
   11b9e:	3301      	adds	r3, #1
   11ba0:	60fb      	str	r3, [r7, #12]
   11ba2:	68fb      	ldr	r3, [r7, #12]
   11ba4:	2b25      	cmp	r3, #37	; 0x25
   11ba6:	d9e0      	bls.n	11b6a <cc1101_cfg_regs+0xe>
    {
        uint8_t reg = wbslRadioCfg[i][0];
        uint8_t val = wbslRadioCfg[i][1];
        write_reg(fd, reg, val, NULL); 
    }
    write_reg(fd, IOCFG0, WBSL_GDO_SYNC, NULL);
   11ba8:	6878      	ldr	r0, [r7, #4]
   11baa:	2102      	movs	r1, #2
   11bac:	2206      	movs	r2, #6
   11bae:	2300      	movs	r3, #0
   11bb0:	f7ff f87a 	bl	10ca8 <write_reg>
    write_reg(fd, IOCFG2, 7, NULL);
   11bb4:	6878      	ldr	r0, [r7, #4]
   11bb6:	2100      	movs	r1, #0
   11bb8:	2207      	movs	r2, #7
   11bba:	2300      	movs	r3, #0
   11bbc:	f7ff f874 	bl	10ca8 <write_reg>
}
   11bc0:	3710      	adds	r7, #16
   11bc2:	46bd      	mov	sp, r7
   11bc4:	bd80      	pop	{r7, pc}
   11bc6:	bf00      	nop

00011bc8 <cc1101_initialize>:


void cc1101_initialize(int fd, fset_t fset)
{
   11bc8:	b580      	push	{r7, lr}
   11bca:	b084      	sub	sp, #16
   11bcc:	af00      	add	r7, sp, #0
   11bce:	6078      	str	r0, [r7, #4]
   11bd0:	6039      	str	r1, [r7, #0]

    cc1101_reset();
   11bd2:	f7ff fdf1 	bl	117b8 <cc1101_reset>
    uint8_t response;
    strobe_cmd(fd, SRES, &response);
   11bd6:	f107 030f 	add.w	r3, r7, #15
   11bda:	6878      	ldr	r0, [r7, #4]
   11bdc:	2130      	movs	r1, #48	; 0x30
   11bde:	461a      	mov	r2, r3
   11be0:	f7ff fcd6 	bl	11590 <strobe_cmd>
    while (response & 0x70)
   11be4:	e00e      	b.n	11c04 <cc1101_initialize+0x3c>
    {
        printf("Waiting for Radio to idle....%02X\n", response);
   11be6:	7bfb      	ldrb	r3, [r7, #15]
   11be8:	f642 0040 	movw	r0, #10304	; 0x2840
   11bec:	f2c0 0001 	movt	r0, #1
   11bf0:	4619      	mov	r1, r3
   11bf2:	f7fe eeb0 	blx	10954 <printf@plt>
        strobe_cmd(fd, SIDLE, &response);
   11bf6:	f107 030f 	add.w	r3, r7, #15
   11bfa:	6878      	ldr	r0, [r7, #4]
   11bfc:	2136      	movs	r1, #54	; 0x36
   11bfe:	461a      	mov	r2, r3
   11c00:	f7ff fcc6 	bl	11590 <strobe_cmd>
{

    cc1101_reset();
    uint8_t response;
    strobe_cmd(fd, SRES, &response);
    while (response & 0x70)
   11c04:	7bfb      	ldrb	r3, [r7, #15]
   11c06:	f003 0370 	and.w	r3, r3, #112	; 0x70
   11c0a:	2b00      	cmp	r3, #0
   11c0c:	d1eb      	bne.n	11be6 <cc1101_initialize+0x1e>
    {
        printf("Waiting for Radio to idle....%02X\n", response);
        strobe_cmd(fd, SIDLE, &response);
    }

    cc1101_cfg_regs(fd);
   11c0e:	6878      	ldr	r0, [r7, #4]
   11c10:	f7ff ffa4 	bl	11b5c <cc1101_cfg_regs>
    cc1101_cfg_band(fd, fset);
   11c14:	6878      	ldr	r0, [r7, #4]
   11c16:	6839      	ldr	r1, [r7, #0]
   11c18:	f7ff ff64 	bl	11ae4 <cc1101_cfg_band>
}
   11c1c:	3710      	adds	r7, #16
   11c1e:	46bd      	mov	sp, r7
   11c20:	bd80      	pop	{r7, pc}
   11c22:	bf00      	nop

00011c24 <rxon>:

void rxon(int fd)
{
   11c24:	b580      	push	{r7, lr}
   11c26:	b082      	sub	sp, #8
   11c28:	af00      	add	r7, sp, #0
   11c2a:	6078      	str	r0, [r7, #4]
    strobe_cmd(fd, SRX, NULL); 
   11c2c:	6878      	ldr	r0, [r7, #4]
   11c2e:	2134      	movs	r1, #52	; 0x34
   11c30:	2200      	movs	r2, #0
   11c32:	f7ff fcad 	bl	11590 <strobe_cmd>
}
   11c36:	3708      	adds	r7, #8
   11c38:	46bd      	mov	sp, r7
   11c3a:	bd80      	pop	{r7, pc}

00011c3c <rxoff>:


void rxoff(int fd)
{
   11c3c:	b580      	push	{r7, lr}
   11c3e:	b084      	sub	sp, #16
   11c40:	af00      	add	r7, sp, #0
   11c42:	6078      	str	r0, [r7, #4]
    uint8_t response;
    strobe_cmd(fd, SFRX, &response);
   11c44:	f107 030f 	add.w	r3, r7, #15
   11c48:	6878      	ldr	r0, [r7, #4]
   11c4a:	213a      	movs	r1, #58	; 0x3a
   11c4c:	461a      	mov	r2, r3
   11c4e:	f7ff fc9f 	bl	11590 <strobe_cmd>
    strobe_cmd(fd, SIDLE, &response);
   11c52:	f107 030f 	add.w	r3, r7, #15
   11c56:	6878      	ldr	r0, [r7, #4]
   11c58:	2136      	movs	r1, #54	; 0x36
   11c5a:	461a      	mov	r2, r3
   11c5c:	f7ff fc98 	bl	11590 <strobe_cmd>
    while (response & 0x70)
   11c60:	e00e      	b.n	11c80 <rxoff+0x44>
    {
        printf("Waiting for Radio to idle....%02X\n", response);
   11c62:	7bfb      	ldrb	r3, [r7, #15]
   11c64:	f642 0040 	movw	r0, #10304	; 0x2840
   11c68:	f2c0 0001 	movt	r0, #1
   11c6c:	4619      	mov	r1, r3
   11c6e:	f7fe ee72 	blx	10954 <printf@plt>
        strobe_cmd(fd, SIDLE, &response);
   11c72:	f107 030f 	add.w	r3, r7, #15
   11c76:	6878      	ldr	r0, [r7, #4]
   11c78:	2136      	movs	r1, #54	; 0x36
   11c7a:	461a      	mov	r2, r3
   11c7c:	f7ff fc88 	bl	11590 <strobe_cmd>
void rxoff(int fd)
{
    uint8_t response;
    strobe_cmd(fd, SFRX, &response);
    strobe_cmd(fd, SIDLE, &response);
    while (response & 0x70)
   11c80:	7bfb      	ldrb	r3, [r7, #15]
   11c82:	f003 0370 	and.w	r3, r3, #112	; 0x70
   11c86:	2b00      	cmp	r3, #0
   11c88:	d1eb      	bne.n	11c62 <rxoff+0x26>
    {
        printf("Waiting for Radio to idle....%02X\n", response);
        strobe_cmd(fd, SIDLE, &response);
    }

}
   11c8a:	3710      	adds	r7, #16
   11c8c:	46bd      	mov	sp, r7
   11c8e:	bd80      	pop	{r7, pc}

00011c90 <txstart>:

void txstart(int fd)
{
   11c90:	b580      	push	{r7, lr}
   11c92:	b082      	sub	sp, #8
   11c94:	af00      	add	r7, sp, #0
   11c96:	6078      	str	r0, [r7, #4]
    strobe_cmd(fd, STX, NULL); 
   11c98:	6878      	ldr	r0, [r7, #4]
   11c9a:	2135      	movs	r1, #53	; 0x35
   11c9c:	2200      	movs	r2, #0
   11c9e:	f7ff fc77 	bl	11590 <strobe_cmd>
}
   11ca2:	3708      	adds	r7, #8
   11ca4:	46bd      	mov	sp, r7
   11ca6:	bd80      	pop	{r7, pc}

00011ca8 <txoff>:

void txoff(int fd)
{
   11ca8:	b580      	push	{r7, lr}
   11caa:	b084      	sub	sp, #16
   11cac:	af00      	add	r7, sp, #0
   11cae:	6078      	str	r0, [r7, #4]
    uint8_t response;
    strobe_cmd(fd, SFTX, &response);
   11cb0:	f107 030f 	add.w	r3, r7, #15
   11cb4:	6878      	ldr	r0, [r7, #4]
   11cb6:	213b      	movs	r1, #59	; 0x3b
   11cb8:	461a      	mov	r2, r3
   11cba:	f7ff fc69 	bl	11590 <strobe_cmd>
    strobe_cmd(fd, SIDLE, &response);
   11cbe:	f107 030f 	add.w	r3, r7, #15
   11cc2:	6878      	ldr	r0, [r7, #4]
   11cc4:	2136      	movs	r1, #54	; 0x36
   11cc6:	461a      	mov	r2, r3
   11cc8:	f7ff fc62 	bl	11590 <strobe_cmd>
    while (response & 0x70)
   11ccc:	e00e      	b.n	11cec <txoff+0x44>
    {
        printf("Waiting for Radio to idle....%02X\n", response);
   11cce:	7bfb      	ldrb	r3, [r7, #15]
   11cd0:	f642 0040 	movw	r0, #10304	; 0x2840
   11cd4:	f2c0 0001 	movt	r0, #1
   11cd8:	4619      	mov	r1, r3
   11cda:	f7fe ee3c 	blx	10954 <printf@plt>
        strobe_cmd(fd, SIDLE, &response);
   11cde:	f107 030f 	add.w	r3, r7, #15
   11ce2:	6878      	ldr	r0, [r7, #4]
   11ce4:	2136      	movs	r1, #54	; 0x36
   11ce6:	461a      	mov	r2, r3
   11ce8:	f7ff fc52 	bl	11590 <strobe_cmd>
void txoff(int fd)
{
    uint8_t response;
    strobe_cmd(fd, SFTX, &response);
    strobe_cmd(fd, SIDLE, &response);
    while (response & 0x70)
   11cec:	7bfb      	ldrb	r3, [r7, #15]
   11cee:	f003 0370 	and.w	r3, r3, #112	; 0x70
   11cf2:	2b00      	cmp	r3, #0
   11cf4:	d1eb      	bne.n	11cce <txoff+0x26>
    {
        printf("Waiting for Radio to idle....%02X\n", response);
        strobe_cmd(fd, SIDLE, &response);
    }

}
   11cf6:	3710      	adds	r7, #16
   11cf8:	46bd      	mov	sp, r7
   11cfa:	bd80      	pop	{r7, pc}

00011cfc <CheckRx>:


uint8_t CheckRx(int fd)
{
   11cfc:	b590      	push	{r4, r7, lr}
   11cfe:	b085      	sub	sp, #20
   11d00:	af00      	add	r7, sp, #0
   11d02:	6078      	str	r0, [r7, #4]
    uint8_t bytes = 0;
   11d04:	2300      	movs	r3, #0
   11d06:	73bb      	strb	r3, [r7, #14]
    uint8_t marc_state = read_reg(fd, MARCSTATE, NULL) & 0x1f;
   11d08:	6878      	ldr	r0, [r7, #4]
   11d0a:	2135      	movs	r1, #53	; 0x35
   11d0c:	2200      	movs	r2, #0
   11d0e:	f7ff fb31 	bl	11374 <read_reg>
   11d12:	4603      	mov	r3, r0
   11d14:	f003 031f 	and.w	r3, r3, #31
   11d18:	737b      	strb	r3, [r7, #13]
    if (marc_state == 0x11)
   11d1a:	7b7b      	ldrb	r3, [r7, #13]
   11d1c:	2b11      	cmp	r3, #17
   11d1e:	d10b      	bne.n	11d38 <CheckRx+0x3c>
    {
        printf("RX overflow\n");
   11d20:	f642 0064 	movw	r0, #10340	; 0x2864
   11d24:	f2c0 0001 	movt	r0, #1
   11d28:	f7fe ee32 	blx	10990 <puts@plt>
        rxoff(fd);
   11d2c:	6878      	ldr	r0, [r7, #4]
   11d2e:	f7ff ff85 	bl	11c3c <rxoff>
        rxon(fd);
   11d32:	6878      	ldr	r0, [r7, #4]
   11d34:	f7ff ff76 	bl	11c24 <rxon>
    }
    if (!GET_GPIO(GPIO_GD2))
   11d38:	f644 4300 	movw	r3, #19456	; 0x4c00
   11d3c:	f2c0 0302 	movt	r3, #2
   11d40:	681b      	ldr	r3, [r3, #0]
   11d42:	f103 0434 	add.w	r4, r3, #52	; 0x34
   11d46:	2c00      	cmp	r4, #0
   11d48:	d106      	bne.n	11d58 <CheckRx+0x5c>
   11d4a:	f644 0018 	movw	r0, #18456	; 0x4818
   11d4e:	f2c0 0002 	movt	r0, #2
   11d52:	2100      	movs	r1, #0
   11d54:	f7fe ee16 	blx	10984 <__ubsan_handle_type_mismatch@plt>
   11d58:	6823      	ldr	r3, [r4, #0]
   11d5a:	f403 0300 	and.w	r3, r3, #8388608	; 0x800000
   11d5e:	2b00      	cmp	r3, #0
   11d60:	d101      	bne.n	11d66 <CheckRx+0x6a>
    {
        return 0;
   11d62:	2300      	movs	r3, #0
   11d64:	e037      	b.n	11dd6 <CheckRx+0xda>
    }
    else 
    {
        int8_t val = bytes = read_reg(fd,RXBYTES, NULL);
   11d66:	6878      	ldr	r0, [r7, #4]
   11d68:	213b      	movs	r1, #59	; 0x3b
   11d6a:	2200      	movs	r2, #0
   11d6c:	f7ff fb02 	bl	11374 <read_reg>
   11d70:	4603      	mov	r3, r0
   11d72:	73bb      	strb	r3, [r7, #14]
   11d74:	7bbb      	ldrb	r3, [r7, #14]
   11d76:	73fb      	strb	r3, [r7, #15]
        if (val)
   11d78:	f997 300f 	ldrsb.w	r3, [r7, #15]
   11d7c:	2b00      	cmp	r3, #0
   11d7e:	d019      	beq.n	11db4 <CheckRx+0xb8>
        {
            int8_t tmpval = 0;
   11d80:	2300      	movs	r3, #0
   11d82:	733b      	strb	r3, [r7, #12]
            while (val != (tmpval = read_reg(fd, RXBYTES, NULL)))
   11d84:	e001      	b.n	11d8a <CheckRx+0x8e>
                val = tmpval;
   11d86:	7b3b      	ldrb	r3, [r7, #12]
   11d88:	73fb      	strb	r3, [r7, #15]
    {
        int8_t val = bytes = read_reg(fd,RXBYTES, NULL);
        if (val)
        {
            int8_t tmpval = 0;
            while (val != (tmpval = read_reg(fd, RXBYTES, NULL)))
   11d8a:	6878      	ldr	r0, [r7, #4]
   11d8c:	213b      	movs	r1, #59	; 0x3b
   11d8e:	2200      	movs	r2, #0
   11d90:	f7ff faf0 	bl	11374 <read_reg>
   11d94:	4603      	mov	r3, r0
   11d96:	733b      	strb	r3, [r7, #12]
   11d98:	f997 200c 	ldrsb.w	r2, [r7, #12]
   11d9c:	f997 300f 	ldrsb.w	r3, [r7, #15]
   11da0:	429a      	cmp	r2, r3
   11da2:	d1f0      	bne.n	11d86 <CheckRx+0x8a>
                val = tmpval;
            val = val & 0x7f;
   11da4:	7bfb      	ldrb	r3, [r7, #15]
   11da6:	f003 037f 	and.w	r3, r3, #127	; 0x7f
   11daa:	73fb      	strb	r3, [r7, #15]
            return bytes = val;
   11dac:	7bfb      	ldrb	r3, [r7, #15]
   11dae:	73bb      	strb	r3, [r7, #14]
   11db0:	7bbb      	ldrb	r3, [r7, #14]
   11db2:	e010      	b.n	11dd6 <CheckRx+0xda>
        }
        else
        {
            /* False Packet Detected ? */
            rxoff(fd); 
   11db4:	6878      	ldr	r0, [r7, #4]
   11db6:	f7ff ff41 	bl	11c3c <rxoff>
            rxon(fd);
   11dba:	6878      	ldr	r0, [r7, #4]
   11dbc:	f7ff ff32 	bl	11c24 <rxon>
            val = 0;
   11dc0:	2300      	movs	r3, #0
   11dc2:	73fb      	strb	r3, [r7, #15]
            bytes = 0;
   11dc4:	2300      	movs	r3, #0
   11dc6:	73bb      	strb	r3, [r7, #14]
            printf("Radio Reset due to false detection !!!\n");
   11dc8:	f642 0070 	movw	r0, #10352	; 0x2870
   11dcc:	f2c0 0001 	movt	r0, #1
   11dd0:	f7fe edde 	blx	10990 <puts@plt>
        }

      }

    return bytes;
   11dd4:	7bbb      	ldrb	r3, [r7, #14]
}
   11dd6:	4618      	mov	r0, r3
   11dd8:	3714      	adds	r7, #20
   11dda:	46bd      	mov	sp, r7
   11ddc:	bd90      	pop	{r4, r7, pc}
   11dde:	bf00      	nop

00011de0 <ReceivePkt>:

void ReceivePkt(int fd, uint8_t *pktbuf, uint8_t bytes)
{
   11de0:	b580      	push	{r7, lr}
   11de2:	b084      	sub	sp, #16
   11de4:	af00      	add	r7, sp, #0
   11de6:	60f8      	str	r0, [r7, #12]
   11de8:	60b9      	str	r1, [r7, #8]
   11dea:	4613      	mov	r3, r2
   11dec:	71fb      	strb	r3, [r7, #7]
    read_reg_burst(fd, RXFIFO, bytes, pktbuf); 
   11dee:	79fb      	ldrb	r3, [r7, #7]
   11df0:	68f8      	ldr	r0, [r7, #12]
   11df2:	213f      	movs	r1, #63	; 0x3f
   11df4:	461a      	mov	r2, r3
   11df6:	68bb      	ldr	r3, [r7, #8]
   11df8:	f7ff f840 	bl	10e7c <read_reg_burst>
}
   11dfc:	3710      	adds	r7, #16
   11dfe:	46bd      	mov	sp, r7
   11e00:	bd80      	pop	{r7, pc}
   11e02:	bf00      	nop

00011e04 <TransmitPkt>:

void TransmitPkt(int fd, uint8_t *payload, uint8_t len)
{
   11e04:	b5b0      	push	{r4, r5, r7, lr}
   11e06:	b084      	sub	sp, #16
   11e08:	af00      	add	r7, sp, #0
   11e0a:	60f8      	str	r0, [r7, #12]
   11e0c:	60b9      	str	r1, [r7, #8]
   11e0e:	4613      	mov	r3, r2
   11e10:	71fb      	strb	r3, [r7, #7]
    /*convert to State machine*/
    rxoff(fd);
   11e12:	68f8      	ldr	r0, [r7, #12]
   11e14:	f7ff ff12 	bl	11c3c <rxoff>
    assert(payload[0] == len - 1);
   11e18:	68bb      	ldr	r3, [r7, #8]
   11e1a:	2b00      	cmp	r3, #0
   11e1c:	d106      	bne.n	11e2c <TransmitPkt+0x28>
   11e1e:	f644 0030 	movw	r0, #18480	; 0x4830
   11e22:	f2c0 0002 	movt	r0, #2
   11e26:	2100      	movs	r1, #0
   11e28:	f7fe edac 	blx	10984 <__ubsan_handle_type_mismatch@plt>
   11e2c:	68bb      	ldr	r3, [r7, #8]
   11e2e:	781b      	ldrb	r3, [r3, #0]
   11e30:	461d      	mov	r5, r3
   11e32:	79fb      	ldrb	r3, [r7, #7]
   11e34:	1e5c      	subs	r4, r3, #1
   11e36:	f04f 32ff 	mov.w	r2, #4294967295
   11e3a:	2a00      	cmp	r2, #0
   11e3c:	db02      	blt.n	11e44 <TransmitPkt+0x40>
   11e3e:	429c      	cmp	r4, r3
   11e40:	da0b      	bge.n	11e5a <TransmitPkt+0x56>
   11e42:	e001      	b.n	11e48 <TransmitPkt+0x44>
   11e44:	429c      	cmp	r4, r3
   11e46:	dd08      	ble.n	11e5a <TransmitPkt+0x56>
   11e48:	f644 0078 	movw	r0, #18552	; 0x4878
   11e4c:	f2c0 0002 	movt	r0, #2
   11e50:	4619      	mov	r1, r3
   11e52:	f04f 32ff 	mov.w	r2, #4294967295
   11e56:	f7fe ed78 	blx	10948 <__ubsan_handle_add_overflow@plt>
   11e5a:	4623      	mov	r3, r4
   11e5c:	429d      	cmp	r5, r3
   11e5e:	d00f      	beq.n	11e80 <TransmitPkt+0x7c>
   11e60:	f642 0098 	movw	r0, #10392	; 0x2898
   11e64:	f2c0 0001 	movt	r0, #1
   11e68:	f242 7198 	movw	r1, #10136	; 0x2798
   11e6c:	f2c0 0101 	movt	r1, #1
   11e70:	f240 22fd 	movw	r2, #765	; 0x2fd
   11e74:	f642 13d0 	movw	r3, #10704	; 0x29d0
   11e78:	f2c0 0301 	movt	r3, #1
   11e7c:	f7fe ed4c 	blx	10918 <__assert_fail@plt>
    write_reg_burst(fd, TXFIFO, payload, len);
   11e80:	79fb      	ldrb	r3, [r7, #7]
   11e82:	68f8      	ldr	r0, [r7, #12]
   11e84:	213f      	movs	r1, #63	; 0x3f
   11e86:	68ba      	ldr	r2, [r7, #8]
   11e88:	f7ff f926 	bl	110d8 <write_reg_burst>
    txstart(fd);
   11e8c:	68f8      	ldr	r0, [r7, #12]
   11e8e:	f7ff feff 	bl	11c90 <txstart>
    while(!GET_GPIO(GPIO_GD0));
   11e92:	bf00      	nop
   11e94:	f644 4300 	movw	r3, #19456	; 0x4c00
   11e98:	f2c0 0302 	movt	r3, #2
   11e9c:	681b      	ldr	r3, [r3, #0]
   11e9e:	f103 0434 	add.w	r4, r3, #52	; 0x34
   11ea2:	2c00      	cmp	r4, #0
   11ea4:	d106      	bne.n	11eb4 <TransmitPkt+0xb0>
   11ea6:	f644 0048 	movw	r0, #18504	; 0x4848
   11eaa:	f2c0 0002 	movt	r0, #2
   11eae:	2100      	movs	r1, #0
   11eb0:	f7fe ed68 	blx	10984 <__ubsan_handle_type_mismatch@plt>
   11eb4:	6823      	ldr	r3, [r4, #0]
   11eb6:	f003 7380 	and.w	r3, r3, #16777216	; 0x1000000
   11eba:	2b00      	cmp	r3, #0
   11ebc:	d0ea      	beq.n	11e94 <TransmitPkt+0x90>
    while(GET_GPIO(GPIO_GD0));
   11ebe:	bf00      	nop
   11ec0:	f644 4300 	movw	r3, #19456	; 0x4c00
   11ec4:	f2c0 0302 	movt	r3, #2
   11ec8:	681b      	ldr	r3, [r3, #0]
   11eca:	f103 0434 	add.w	r4, r3, #52	; 0x34
   11ece:	2c00      	cmp	r4, #0
   11ed0:	d106      	bne.n	11ee0 <TransmitPkt+0xdc>
   11ed2:	f644 0060 	movw	r0, #18528	; 0x4860
   11ed6:	f2c0 0002 	movt	r0, #2
   11eda:	2100      	movs	r1, #0
   11edc:	f7fe ed52 	blx	10984 <__ubsan_handle_type_mismatch@plt>
   11ee0:	6823      	ldr	r3, [r4, #0]
   11ee2:	f003 7380 	and.w	r3, r3, #16777216	; 0x1000000
   11ee6:	2b00      	cmp	r3, #0
   11ee8:	d1ea      	bne.n	11ec0 <TransmitPkt+0xbc>
}
   11eea:	3710      	adds	r7, #16
   11eec:	46bd      	mov	sp, r7
   11eee:	bdb0      	pop	{r4, r5, r7, pc}

00011ef0 <WaitRx>:

uint8_t RxPktBuf[256];
uint8_t WaitRx(int fd)
{
   11ef0:	b580      	push	{r7, lr}
   11ef2:	b084      	sub	sp, #16
   11ef4:	af00      	add	r7, sp, #0
   11ef6:	6078      	str	r0, [r7, #4]
    uint8_t len = 0;
   11ef8:	2300      	movs	r3, #0
   11efa:	73fb      	strb	r3, [r7, #15]
    while (!(len = CheckRx(fd)))
   11efc:	6878      	ldr	r0, [r7, #4]
   11efe:	f7ff fefd 	bl	11cfc <CheckRx>
   11f02:	4603      	mov	r3, r0
   11f04:	73fb      	strb	r3, [r7, #15]
   11f06:	7bfb      	ldrb	r3, [r7, #15]
   11f08:	2b00      	cmp	r3, #0
   11f0a:	d0f7      	beq.n	11efc <WaitRx+0xc>
        ;
    return len;
   11f0c:	7bfb      	ldrb	r3, [r7, #15]
}
   11f0e:	4618      	mov	r0, r3
   11f10:	3710      	adds	r7, #16
   11f12:	46bd      	mov	sp, r7
   11f14:	bd80      	pop	{r7, pc}
   11f16:	bf00      	nop

00011f18 <GetPacket>:

uint8_t GetPacket(int fd, uint8_t *pktbuf)
{
   11f18:	b590      	push	{r4, r7, lr}
   11f1a:	b089      	sub	sp, #36	; 0x24
   11f1c:	af00      	add	r7, sp, #0
   11f1e:	6078      	str	r0, [r7, #4]
   11f20:	6039      	str	r1, [r7, #0]
    uint8_t len;
    rxon(fd);
   11f22:	6878      	ldr	r0, [r7, #4]
   11f24:	f7ff fe7e 	bl	11c24 <rxon>
    if((len = WaitRx(fd)))
   11f28:	6878      	ldr	r0, [r7, #4]
   11f2a:	f7ff ffe1 	bl	11ef0 <WaitRx>
   11f2e:	4603      	mov	r3, r0
   11f30:	77fb      	strb	r3, [r7, #31]
   11f32:	7ffb      	ldrb	r3, [r7, #31]
   11f34:	2b00      	cmp	r3, #0
   11f36:	f000 80b4 	beq.w	120a2 <GetPacket+0x18a>
    {
        uint32_t j = 0;
   11f3a:	2300      	movs	r3, #0
   11f3c:	61bb      	str	r3, [r7, #24]
        uint8_t clqi = 0, rssi = 0;
   11f3e:	2300      	movs	r3, #0
   11f40:	75fb      	strb	r3, [r7, #23]
   11f42:	2300      	movs	r3, #0
   11f44:	75bb      	strb	r3, [r7, #22]
        struct timespec now;
        clock_gettime(CLOCK_REALTIME, &now);
   11f46:	f107 030c 	add.w	r3, r7, #12
   11f4a:	2000      	movs	r0, #0
   11f4c:	4619      	mov	r1, r3
   11f4e:	f7fe ecc0 	blx	108d0 <clock_gettime@plt>
        printf("Time %ld.%09ld ", now.tv_sec, now.tv_nsec);
   11f52:	68fa      	ldr	r2, [r7, #12]
   11f54:	693b      	ldr	r3, [r7, #16]
   11f56:	f642 00b0 	movw	r0, #10416	; 0x28b0
   11f5a:	f2c0 0001 	movt	r0, #1
   11f5e:	4611      	mov	r1, r2
   11f60:	461a      	mov	r2, r3
   11f62:	f7fe ecf8 	blx	10954 <printf@plt>
        printf("Len:%x ", len); 
   11f66:	7ffb      	ldrb	r3, [r7, #31]
   11f68:	f642 00c0 	movw	r0, #10432	; 0x28c0
   11f6c:	f2c0 0001 	movt	r0, #1
   11f70:	4619      	mov	r1, r3
   11f72:	f7fe ecf0 	blx	10954 <printf@plt>
        ReceivePkt(fd, pktbuf, len);
   11f76:	7ffb      	ldrb	r3, [r7, #31]
   11f78:	6878      	ldr	r0, [r7, #4]
   11f7a:	6839      	ldr	r1, [r7, #0]
   11f7c:	461a      	mov	r2, r3
   11f7e:	f7ff ff2f 	bl	11de0 <ReceivePkt>
        clqi = pktbuf[pktbuf[0] + 2];
   11f82:	683b      	ldr	r3, [r7, #0]
   11f84:	2b00      	cmp	r3, #0
   11f86:	d106      	bne.n	11f96 <GetPacket+0x7e>
   11f88:	f644 0088 	movw	r0, #18568	; 0x4888
   11f8c:	f2c0 0002 	movt	r0, #2
   11f90:	2100      	movs	r1, #0
   11f92:	f7fe ecf8 	blx	10984 <__ubsan_handle_type_mismatch@plt>
   11f96:	683b      	ldr	r3, [r7, #0]
   11f98:	781b      	ldrb	r3, [r3, #0]
   11f9a:	3302      	adds	r3, #2
   11f9c:	683a      	ldr	r2, [r7, #0]
   11f9e:	18d4      	adds	r4, r2, r3
   11fa0:	2c00      	cmp	r4, #0
   11fa2:	d106      	bne.n	11fb2 <GetPacket+0x9a>
   11fa4:	f644 00a0 	movw	r0, #18592	; 0x48a0
   11fa8:	f2c0 0002 	movt	r0, #2
   11fac:	2100      	movs	r1, #0
   11fae:	f7fe ecea 	blx	10984 <__ubsan_handle_type_mismatch@plt>
   11fb2:	7823      	ldrb	r3, [r4, #0]
   11fb4:	75fb      	strb	r3, [r7, #23]
        rssi =  pktbuf[pktbuf[0] + 1];
   11fb6:	683b      	ldr	r3, [r7, #0]
   11fb8:	2b00      	cmp	r3, #0
   11fba:	d106      	bne.n	11fca <GetPacket+0xb2>
   11fbc:	f644 00b8 	movw	r0, #18616	; 0x48b8
   11fc0:	f2c0 0002 	movt	r0, #2
   11fc4:	2100      	movs	r1, #0
   11fc6:	f7fe ecde 	blx	10984 <__ubsan_handle_type_mismatch@plt>
   11fca:	683b      	ldr	r3, [r7, #0]
   11fcc:	781b      	ldrb	r3, [r3, #0]
   11fce:	3301      	adds	r3, #1
   11fd0:	683a      	ldr	r2, [r7, #0]
   11fd2:	18d4      	adds	r4, r2, r3
   11fd4:	2c00      	cmp	r4, #0
   11fd6:	d106      	bne.n	11fe6 <GetPacket+0xce>
   11fd8:	f644 00d0 	movw	r0, #18640	; 0x48d0
   11fdc:	f2c0 0002 	movt	r0, #2
   11fe0:	2100      	movs	r1, #0
   11fe2:	f7fe ecd0 	blx	10984 <__ubsan_handle_type_mismatch@plt>
   11fe6:	7823      	ldrb	r3, [r4, #0]
   11fe8:	75bb      	strb	r3, [r7, #22]
        printf("RSSI:%02X LQI : %02X ", rssi, (clqi & 0x7f));
   11fea:	7dba      	ldrb	r2, [r7, #22]
   11fec:	7dfb      	ldrb	r3, [r7, #23]
   11fee:	f003 037f 	and.w	r3, r3, #127	; 0x7f
   11ff2:	f642 00c8 	movw	r0, #10440	; 0x28c8
   11ff6:	f2c0 0001 	movt	r0, #1
   11ffa:	4611      	mov	r1, r2
   11ffc:	461a      	mov	r2, r3
   11ffe:	f7fe ecaa 	blx	10954 <printf@plt>
        if (clqi & 0x80)
   12002:	7dfb      	ldrb	r3, [r7, #23]
   12004:	b25b      	sxtb	r3, r3
   12006:	2b00      	cmp	r3, #0
   12008:	da06      	bge.n	12018 <GetPacket+0x100>
            printf("CRC:OK\n");
   1200a:	f642 00e0 	movw	r0, #10464	; 0x28e0
   1200e:	f2c0 0001 	movt	r0, #1
   12012:	f7fe ecbe 	blx	10990 <puts@plt>
   12016:	e007      	b.n	12028 <GetPacket+0x110>
        else
        {
            printf("CRC:Fail\n");
   12018:	f642 00e8 	movw	r0, #10472	; 0x28e8
   1201c:	f2c0 0001 	movt	r0, #1
   12020:	f7fe ecb6 	blx	10990 <puts@plt>
            len = 0;
   12024:	2300      	movs	r3, #0
   12026:	77fb      	strb	r3, [r7, #31]
        }
        for (j = 0; j < len; j++)
   12028:	2300      	movs	r3, #0
   1202a:	61bb      	str	r3, [r7, #24]
   1202c:	e02a      	b.n	12084 <GetPacket+0x16c>
        {
            if ( (4*j + 1) % 80 == false)
   1202e:	69bb      	ldr	r3, [r7, #24]
   12030:	009b      	lsls	r3, r3, #2
   12032:	1c59      	adds	r1, r3, #1
   12034:	f64c 43cd 	movw	r3, #52429	; 0xcccd
   12038:	f6cc 43cc 	movt	r3, #52428	; 0xcccc
   1203c:	fba1 2303 	umull	r2, r3, r1, r3
   12040:	099a      	lsrs	r2, r3, #6
   12042:	4613      	mov	r3, r2
   12044:	009b      	lsls	r3, r3, #2
   12046:	4413      	add	r3, r2
   12048:	011b      	lsls	r3, r3, #4
   1204a:	1aca      	subs	r2, r1, r3
   1204c:	2a00      	cmp	r2, #0
   1204e:	d102      	bne.n	12056 <GetPacket+0x13e>
                printf("\n");
   12050:	200a      	movs	r0, #10
   12052:	f7fe ec4a 	blx	108e8 <putchar@plt>
           printf(" %02X ", pktbuf[j]);
   12056:	683a      	ldr	r2, [r7, #0]
   12058:	69bb      	ldr	r3, [r7, #24]
   1205a:	18d4      	adds	r4, r2, r3
   1205c:	2c00      	cmp	r4, #0
   1205e:	d106      	bne.n	1206e <GetPacket+0x156>
   12060:	f644 00e8 	movw	r0, #18664	; 0x48e8
   12064:	f2c0 0002 	movt	r0, #2
   12068:	2100      	movs	r1, #0
   1206a:	f7fe ec8c 	blx	10984 <__ubsan_handle_type_mismatch@plt>
   1206e:	7823      	ldrb	r3, [r4, #0]
   12070:	f642 00f4 	movw	r0, #10484	; 0x28f4
   12074:	f2c0 0001 	movt	r0, #1
   12078:	4619      	mov	r1, r3
   1207a:	f7fe ec6c 	blx	10954 <printf@plt>
        else
        {
            printf("CRC:Fail\n");
            len = 0;
        }
        for (j = 0; j < len; j++)
   1207e:	69bb      	ldr	r3, [r7, #24]
   12080:	3301      	adds	r3, #1
   12082:	61bb      	str	r3, [r7, #24]
   12084:	7ffa      	ldrb	r2, [r7, #31]
   12086:	69bb      	ldr	r3, [r7, #24]
   12088:	429a      	cmp	r2, r3
   1208a:	d8d0      	bhi.n	1202e <GetPacket+0x116>
        {
            if ( (4*j + 1) % 80 == false)
                printf("\n");
           printf(" %02X ", pktbuf[j]);
        }
        printf("\n");
   1208c:	200a      	movs	r0, #10
   1208e:	f7fe ec2c 	blx	108e8 <putchar@plt>
        fflush(stdout);
   12092:	f644 23ec 	movw	r3, #19180	; 0x4aec
   12096:	f2c0 0302 	movt	r3, #2
   1209a:	681b      	ldr	r3, [r3, #0]
   1209c:	4618      	mov	r0, r3
   1209e:	f7fe ec48 	blx	10930 <fflush@plt>
        //nanosleep(&sleepval, NULL);
    }
    return len;
   120a2:	7ffb      	ldrb	r3, [r7, #31]
}
   120a4:	4618      	mov	r0, r3
   120a6:	3724      	adds	r7, #36	; 0x24
   120a8:	46bd      	mov	sp, r7
   120aa:	bd90      	pop	{r4, r7, pc}

000120ac <wait_for_discovery>:
}__attribute__((packed)) wbsl_data_ack_t;

uint8_t linked, epaddr;

void wait_for_discovery(int fd, int force)
{
   120ac:	b580      	push	{r7, lr}
   120ae:	b086      	sub	sp, #24
   120b0:	af00      	add	r7, sp, #0
   120b2:	6078      	str	r0, [r7, #4]
   120b4:	6039      	str	r1, [r7, #0]
    uint8_t discoveryPayload[]= {0xBA,0x5E,0xBA,0x11};
   120b6:	f642 131c 	movw	r3, #10524	; 0x291c
   120ba:	f2c0 0301 	movt	r3, #1
   120be:	f107 020c 	add.w	r2, r7, #12
   120c2:	6818      	ldr	r0, [r3, #0]
   120c4:	6010      	str	r0, [r2, #0]
    uint8_t len = 0;
   120c6:	2300      	movs	r3, #0
   120c8:	75fb      	strb	r3, [r7, #23]
    wbsl_disc_pkt_t *disc = (wbsl_disc_pkt_t *)RxPktBuf;
   120ca:	f644 3300 	movw	r3, #19200	; 0x4b00
   120ce:	f2c0 0302 	movt	r3, #2
   120d2:	613b      	str	r3, [r7, #16]
    while (!linked || force)
   120d4:	e058      	b.n	12188 <wait_for_discovery+0xdc>
    {
        len = GetPacket(fd, RxPktBuf);
   120d6:	6878      	ldr	r0, [r7, #4]
   120d8:	f644 3100 	movw	r1, #19200	; 0x4b00
   120dc:	f2c0 0102 	movt	r1, #2
   120e0:	f7ff ff1a 	bl	11f18 <GetPacket>
   120e4:	4603      	mov	r3, r0
   120e6:	75fb      	strb	r3, [r7, #23]
        if (len < 7)
   120e8:	7dfb      	ldrb	r3, [r7, #23]
   120ea:	2b06      	cmp	r3, #6
   120ec:	d800      	bhi.n	120f0 <wait_for_discovery+0x44>
            continue;
   120ee:	e04b      	b.n	12188 <wait_for_discovery+0xdc>
        if (!disc->hdr.da && !memcmp(discoveryPayload, disc->payload, sizeof(discoveryPayload)))
   120f0:	693b      	ldr	r3, [r7, #16]
   120f2:	2b00      	cmp	r3, #0
   120f4:	d106      	bne.n	12104 <wait_for_discovery+0x58>
   120f6:	f644 1020 	movw	r0, #18720	; 0x4920
   120fa:	f2c0 0002 	movt	r0, #2
   120fe:	2100      	movs	r1, #0
   12100:	f7fe ec40 	blx	10984 <__ubsan_handle_type_mismatch@plt>
   12104:	693b      	ldr	r3, [r7, #16]
   12106:	785b      	ldrb	r3, [r3, #1]
   12108:	2b00      	cmp	r3, #0
   1210a:	d136      	bne.n	1217a <wait_for_discovery+0xce>
   1210c:	693b      	ldr	r3, [r7, #16]
   1210e:	3304      	adds	r3, #4
   12110:	f107 020c 	add.w	r2, r7, #12
   12114:	4610      	mov	r0, r2
   12116:	4619      	mov	r1, r3
   12118:	2204      	movs	r2, #4
   1211a:	f7fe ebce 	blx	108b8 <memcmp@plt>
   1211e:	4603      	mov	r3, r0
   12120:	2b00      	cmp	r3, #0
   12122:	d12a      	bne.n	1217a <wait_for_discovery+0xce>
        {
            printf("Discovered %02X\n", disc->hdr.ta);
   12124:	693b      	ldr	r3, [r7, #16]
   12126:	2b00      	cmp	r3, #0
   12128:	d106      	bne.n	12138 <wait_for_discovery+0x8c>
   1212a:	f644 1038 	movw	r0, #18744	; 0x4938
   1212e:	f2c0 0002 	movt	r0, #2
   12132:	2100      	movs	r1, #0
   12134:	f7fe ec26 	blx	10984 <__ubsan_handle_type_mismatch@plt>
   12138:	693b      	ldr	r3, [r7, #16]
   1213a:	789b      	ldrb	r3, [r3, #2]
   1213c:	f642 00fc 	movw	r0, #10492	; 0x28fc
   12140:	f2c0 0001 	movt	r0, #1
   12144:	4619      	mov	r1, r3
   12146:	f7fe ec06 	blx	10954 <printf@plt>
            epaddr = disc->hdr.ta;
   1214a:	693b      	ldr	r3, [r7, #16]
   1214c:	2b00      	cmp	r3, #0
   1214e:	d106      	bne.n	1215e <wait_for_discovery+0xb2>
   12150:	f644 1050 	movw	r0, #18768	; 0x4950
   12154:	f2c0 0002 	movt	r0, #2
   12158:	2100      	movs	r1, #0
   1215a:	f7fe ec14 	blx	10984 <__ubsan_handle_type_mismatch@plt>
   1215e:	693b      	ldr	r3, [r7, #16]
   12160:	789a      	ldrb	r2, [r3, #2]
   12162:	f644 23f8 	movw	r3, #19192	; 0x4af8
   12166:	f2c0 0302 	movt	r3, #2
   1216a:	701a      	strb	r2, [r3, #0]
            linked = true;
   1216c:	f644 4304 	movw	r3, #19460	; 0x4c04
   12170:	f2c0 0302 	movt	r3, #2
   12174:	2201      	movs	r2, #1
   12176:	701a      	strb	r2, [r3, #0]
   12178:	e006      	b.n	12188 <wait_for_discovery+0xdc>
        }
        else
        {
            printf("Not Disc\n");
   1217a:	f642 1010 	movw	r0, #10512	; 0x2910
   1217e:	f2c0 0001 	movt	r0, #1
   12182:	f7fe ec06 	blx	10990 <puts@plt>
            continue;
   12186:	bf00      	nop
void wait_for_discovery(int fd, int force)
{
    uint8_t discoveryPayload[]= {0xBA,0x5E,0xBA,0x11};
    uint8_t len = 0;
    wbsl_disc_pkt_t *disc = (wbsl_disc_pkt_t *)RxPktBuf;
    while (!linked || force)
   12188:	f644 4304 	movw	r3, #19460	; 0x4c04
   1218c:	f2c0 0302 	movt	r3, #2
   12190:	781b      	ldrb	r3, [r3, #0]
   12192:	2b00      	cmp	r3, #0
   12194:	d09f      	beq.n	120d6 <wait_for_discovery+0x2a>
   12196:	683b      	ldr	r3, [r7, #0]
   12198:	2b00      	cmp	r3, #0
   1219a:	d19c      	bne.n	120d6 <wait_for_discovery+0x2a>
        {
            printf("Not Disc\n");
            continue;
        }
    }
}
   1219c:	3718      	adds	r7, #24
   1219e:	46bd      	mov	sp, r7
   121a0:	bd80      	pop	{r7, pc}
   121a2:	bf00      	nop

000121a4 <send_disc_ack>:


void send_disc_ack(int fd)
{
   121a4:	b580      	push	{r7, lr}
   121a6:	b084      	sub	sp, #16
   121a8:	af00      	add	r7, sp, #0
   121aa:	6078      	str	r0, [r7, #4]
    wbsl_disc_ack_t dack = {
   121ac:	2303      	movs	r3, #3
   121ae:	733b      	strb	r3, [r7, #12]
   121b0:	f644 23f8 	movw	r3, #19192	; 0x4af8
   121b4:	f2c0 0302 	movt	r3, #2
   121b8:	781b      	ldrb	r3, [r3, #0]
   121ba:	737b      	strb	r3, [r7, #13]
   121bc:	23ca      	movs	r3, #202	; 0xca
   121be:	73bb      	strb	r3, [r7, #14]
   121c0:	2301      	movs	r3, #1
   121c2:	73fb      	strb	r3, [r7, #15]
        .len = sizeof(dack) - sizeof(dack.len), 
        .hdr = { .da = epaddr, 
            .ta = WBSL_AP_ADDRESS}, 
        .status = WBSL_ACK_STATUS_SUCCESS };
    TransmitPkt(fd, (uint8_t *)&dack, sizeof(dack));
   121c4:	f107 030c 	add.w	r3, r7, #12
   121c8:	6878      	ldr	r0, [r7, #4]
   121ca:	4619      	mov	r1, r3
   121cc:	2204      	movs	r2, #4
   121ce:	f7ff fe19 	bl	11e04 <TransmitPkt>
}
   121d2:	3710      	adds	r7, #16
   121d4:	46bd      	mov	sp, r7
   121d6:	bd80      	pop	{r7, pc}

000121d8 <start_update>:

uint8_t init_packet[] = { 5, 0xad, 0xca, 0, 0 ,0}; 
int start_update(int fd)
{
   121d8:	b5b0      	push	{r4, r5, r7, lr}
   121da:	b08a      	sub	sp, #40	; 0x28
   121dc:	af00      	add	r7, sp, #0
   121de:	6078      	str	r0, [r7, #4]
    int i;
    int j;
    uint8_t retx = 0;
   121e0:	2300      	movs	r3, #0
   121e2:	77fb      	strb	r3, [r7, #31]
    uint8_t len = 0;
   121e4:	2300      	movs	r3, #0
   121e6:	77bb      	strb	r3, [r7, #30]
    struct timespec ack_timeout = { .tv_nsec = 20000};
   121e8:	2300      	movs	r3, #0
   121ea:	60fb      	str	r3, [r7, #12]
   121ec:	2300      	movs	r3, #0
   121ee:	613b      	str	r3, [r7, #16]
   121f0:	f644 6320 	movw	r3, #20000	; 0x4e20
   121f4:	613b      	str	r3, [r7, #16]
    for ( i = 0; i <  sizeof(npkts)/sizeof(npkts[0]); i++)
   121f6:	2300      	movs	r3, #0
   121f8:	627b      	str	r3, [r7, #36]	; 0x24
   121fa:	e166      	b.n	124ca <start_update+0x2f2>
    {  
        wait_for_discovery(fd, false);
   121fc:	6878      	ldr	r0, [r7, #4]
   121fe:	2100      	movs	r1, #0
   12200:	f7ff ff54 	bl	120ac <wait_for_discovery>
        rxoff(fd);
   12204:	6878      	ldr	r0, [r7, #4]
   12206:	f7ff fd19 	bl	11c3c <rxoff>
        nanosleep(&ack_timeout, NULL);
   1220a:	f107 030c 	add.w	r3, r7, #12
   1220e:	4618      	mov	r0, r3
   12210:	2100      	movs	r1, #0
   12212:	f7fe ebc4 	blx	1099c <nanosleep@plt>
        send_disc_ack(fd);
   12216:	6878      	ldr	r0, [r7, #4]
   12218:	f7ff ffc4 	bl	121a4 <send_disc_ack>
        init_packet[3] = npkts[i] & 0xff;
   1221c:	f243 1390 	movw	r3, #12688	; 0x3190
   12220:	f2c0 0302 	movt	r3, #2
   12224:	6a7a      	ldr	r2, [r7, #36]	; 0x24
   12226:	f833 3012 	ldrh.w	r3, [r3, r2, lsl #1]
   1222a:	b2da      	uxtb	r2, r3
   1222c:	f644 1368 	movw	r3, #18792	; 0x4968
   12230:	f2c0 0302 	movt	r3, #2
   12234:	70da      	strb	r2, [r3, #3]
        init_packet[4] = (npkts[i] >> 8 ) & 0xff;
   12236:	f243 1390 	movw	r3, #12688	; 0x3190
   1223a:	f2c0 0302 	movt	r3, #2
   1223e:	6a7a      	ldr	r2, [r7, #36]	; 0x24
   12240:	f833 3012 	ldrh.w	r3, [r3, r2, lsl #1]
   12244:	0a1b      	lsrs	r3, r3, #8
   12246:	b29b      	uxth	r3, r3
   12248:	b2da      	uxtb	r2, r3
   1224a:	f644 1368 	movw	r3, #18792	; 0x4968
   1224e:	f2c0 0302 	movt	r3, #2
   12252:	711a      	strb	r2, [r3, #4]
        while(1) {
            retx++;
   12254:	7ffb      	ldrb	r3, [r7, #31]
   12256:	3301      	adds	r3, #1
   12258:	77fb      	strb	r3, [r7, #31]
            init_packet[5] = 1;
   1225a:	f644 1368 	movw	r3, #18792	; 0x4968
   1225e:	f2c0 0302 	movt	r3, #2
   12262:	2201      	movs	r2, #1
   12264:	715a      	strb	r2, [r3, #5]
            TransmitPkt(fd, init_packet, sizeof(init_packet));
   12266:	6878      	ldr	r0, [r7, #4]
   12268:	f644 1168 	movw	r1, #18792	; 0x4968
   1226c:	f2c0 0102 	movt	r1, #2
   12270:	2206      	movs	r2, #6
   12272:	f7ff fdc7 	bl	11e04 <TransmitPkt>
            nanosleep(&ack_timeout, NULL);
   12276:	f107 030c 	add.w	r3, r7, #12
   1227a:	4618      	mov	r0, r3
   1227c:	2100      	movs	r1, #0
   1227e:	f7fe eb8e 	blx	1099c <nanosleep@plt>
            if((len = GetPacket(fd, RxPktBuf)))
   12282:	6878      	ldr	r0, [r7, #4]
   12284:	f644 3100 	movw	r1, #19200	; 0x4b00
   12288:	f2c0 0102 	movt	r1, #2
   1228c:	f7ff fe44 	bl	11f18 <GetPacket>
   12290:	4603      	mov	r3, r0
   12292:	77bb      	strb	r3, [r7, #30]
   12294:	7fbb      	ldrb	r3, [r7, #30]
   12296:	2b00      	cmp	r3, #0
   12298:	d011      	beq.n	122be <start_update+0xe6>
            {
               printf("Success Init Packet\n");
   1229a:	f642 1020 	movw	r0, #10528	; 0x2920
   1229e:	f2c0 0001 	movt	r0, #1
   122a2:	f7fe eb76 	blx	10990 <puts@plt>
               retx = 0;
   122a6:	2300      	movs	r3, #0
   122a8:	77fb      	strb	r3, [r7, #31]
               break;
   122aa:	bf00      	nop
            }
        }

        nanosleep(&ack_timeout, NULL);
   122ac:	f107 030c 	add.w	r3, r7, #12
   122b0:	4618      	mov	r0, r3
   122b2:	2100      	movs	r1, #0
   122b4:	f7fe eb72 	blx	1099c <nanosleep@plt>

        for(j = 0; j < npkts[i]; j++)
   122b8:	2300      	movs	r3, #0
   122ba:	623b      	str	r3, [r7, #32]
   122bc:	e0e4      	b.n	12488 <start_update+0x2b0>
            {
               printf("Success Init Packet\n");
               retx = 0;
               break;
            }
        }
   122be:	e7c9      	b.n	12254 <start_update+0x7c>

        nanosleep(&ack_timeout, NULL);

        for(j = 0; j < npkts[i]; j++)
        {
            TransmitPkt(fd, packets[i][j], packets[i][j][0]+1);
   122c0:	f244 022c 	movw	r2, #16428	; 0x402c
   122c4:	f2c0 0202 	movt	r2, #2
   122c8:	6a79      	ldr	r1, [r7, #36]	; 0x24
   122ca:	460b      	mov	r3, r1
   122cc:	011b      	lsls	r3, r3, #4
   122ce:	1a5b      	subs	r3, r3, r1
   122d0:	009b      	lsls	r3, r3, #2
   122d2:	6a39      	ldr	r1, [r7, #32]
   122d4:	440b      	add	r3, r1
   122d6:	f852 5023 	ldr.w	r5, [r2, r3, lsl #2]
   122da:	f244 022c 	movw	r2, #16428	; 0x402c
   122de:	f2c0 0202 	movt	r2, #2
   122e2:	6a79      	ldr	r1, [r7, #36]	; 0x24
   122e4:	460b      	mov	r3, r1
   122e6:	011b      	lsls	r3, r3, #4
   122e8:	1a5b      	subs	r3, r3, r1
   122ea:	009b      	lsls	r3, r3, #2
   122ec:	6a39      	ldr	r1, [r7, #32]
   122ee:	440b      	add	r3, r1
   122f0:	f852 4023 	ldr.w	r4, [r2, r3, lsl #2]
   122f4:	2c00      	cmp	r4, #0
   122f6:	d106      	bne.n	12306 <start_update+0x12e>
   122f8:	f644 10a4 	movw	r0, #18852	; 0x49a4
   122fc:	f2c0 0002 	movt	r0, #2
   12300:	2100      	movs	r1, #0
   12302:	f7fe eb40 	blx	10984 <__ubsan_handle_type_mismatch@plt>
   12306:	7823      	ldrb	r3, [r4, #0]
   12308:	3301      	adds	r3, #1
   1230a:	b2db      	uxtb	r3, r3
   1230c:	6878      	ldr	r0, [r7, #4]
   1230e:	4629      	mov	r1, r5
   12310:	461a      	mov	r2, r3
   12312:	f7ff fd77 	bl	11e04 <TransmitPkt>
            if((len = GetPacket(fd, RxPktBuf)))
   12316:	6878      	ldr	r0, [r7, #4]
   12318:	f644 3100 	movw	r1, #19200	; 0x4b00
   1231c:	f2c0 0102 	movt	r1, #2
   12320:	f7ff fdfa 	bl	11f18 <GetPacket>
   12324:	4603      	mov	r3, r0
   12326:	77bb      	strb	r3, [r7, #30]
   12328:	7fbb      	ldrb	r3, [r7, #30]
   1232a:	2b00      	cmp	r3, #0
   1232c:	f000 8097 	beq.w	1245e <start_update+0x286>
            {
                wbsl_data_ack_t *da = RxPktBuf;
   12330:	f644 3300 	movw	r3, #19200	; 0x4b00
   12334:	f2c0 0302 	movt	r3, #2
   12338:	61bb      	str	r3, [r7, #24]
                printf("Packet %x", (da->packethi << 8) + da->packetlo);
   1233a:	69bb      	ldr	r3, [r7, #24]
   1233c:	2b00      	cmp	r3, #0
   1233e:	d106      	bne.n	1234e <start_update+0x176>
   12340:	f644 10dc 	movw	r0, #18908	; 0x49dc
   12344:	f2c0 0002 	movt	r0, #2
   12348:	2100      	movs	r1, #0
   1234a:	f7fe eb1c 	blx	10984 <__ubsan_handle_type_mismatch@plt>
   1234e:	69bb      	ldr	r3, [r7, #24]
   12350:	791b      	ldrb	r3, [r3, #4]
   12352:	461c      	mov	r4, r3
   12354:	4623      	mov	r3, r4
   12356:	0ddb      	lsrs	r3, r3, #23
   12358:	2b00      	cmp	r3, #0
   1235a:	bf14      	ite	ne
   1235c:	2301      	movne	r3, #1
   1235e:	2300      	moveq	r3, #0
   12360:	b2db      	uxtb	r3, r3
   12362:	2b00      	cmp	r3, #0
   12364:	d008      	beq.n	12378 <start_update+0x1a0>
   12366:	4623      	mov	r3, r4
   12368:	f644 107c 	movw	r0, #18812	; 0x497c
   1236c:	f2c0 0002 	movt	r0, #2
   12370:	4619      	mov	r1, r3
   12372:	2208      	movs	r2, #8
   12374:	f7fe eaf4 	blx	10960 <__ubsan_handle_shift_out_of_bounds@plt>
   12378:	0224      	lsls	r4, r4, #8
   1237a:	69bb      	ldr	r3, [r7, #24]
   1237c:	2b00      	cmp	r3, #0
   1237e:	d106      	bne.n	1238e <start_update+0x1b6>
   12380:	f644 10f4 	movw	r0, #18932	; 0x49f4
   12384:	f2c0 0002 	movt	r0, #2
   12388:	2100      	movs	r1, #0
   1238a:	f7fe eafc 	blx	10984 <__ubsan_handle_type_mismatch@plt>
   1238e:	69bb      	ldr	r3, [r7, #24]
   12390:	795b      	ldrb	r3, [r3, #5]
   12392:	18e5      	adds	r5, r4, r3
   12394:	2b00      	cmp	r3, #0
   12396:	db02      	blt.n	1239e <start_update+0x1c6>
   12398:	42a5      	cmp	r5, r4
   1239a:	da0a      	bge.n	123b2 <start_update+0x1da>
   1239c:	e001      	b.n	123a2 <start_update+0x1ca>
   1239e:	42a5      	cmp	r5, r4
   123a0:	dd07      	ble.n	123b2 <start_update+0x1da>
   123a2:	f644 2054 	movw	r0, #19028	; 0x4a54
   123a6:	f2c0 0002 	movt	r0, #2
   123aa:	4621      	mov	r1, r4
   123ac:	461a      	mov	r2, r3
   123ae:	f7fe eacc 	blx	10948 <__ubsan_handle_add_overflow@plt>
   123b2:	462b      	mov	r3, r5
   123b4:	f642 1034 	movw	r0, #10548	; 0x2934
   123b8:	f2c0 0001 	movt	r0, #1
   123bc:	4619      	mov	r1, r3
   123be:	f7fe eaca 	blx	10954 <printf@plt>
                if (da->status == WBSL_ACK_STATUS_SUCCESS)
   123c2:	69bb      	ldr	r3, [r7, #24]
   123c4:	2b00      	cmp	r3, #0
   123c6:	d106      	bne.n	123d6 <start_update+0x1fe>
   123c8:	f644 200c 	movw	r0, #18956	; 0x4a0c
   123cc:	f2c0 0002 	movt	r0, #2
   123d0:	2100      	movs	r1, #0
   123d2:	f7fe ead8 	blx	10984 <__ubsan_handle_type_mismatch@plt>
   123d6:	69bb      	ldr	r3, [r7, #24]
   123d8:	78db      	ldrb	r3, [r3, #3]
   123da:	2b01      	cmp	r3, #1
   123dc:	d106      	bne.n	123ec <start_update+0x214>
                {
                    printf("*Succeeded\n");
   123de:	f642 1040 	movw	r0, #10560	; 0x2940
   123e2:	f2c0 0001 	movt	r0, #1
   123e6:	f7fe ead4 	blx	10990 <puts@plt>
                    continue;
   123ea:	e038      	b.n	1245e <start_update+0x286>
                }
                else
                {
                    printf("* Failed\n");
   123ec:	f642 104c 	movw	r0, #10572	; 0x294c
   123f0:	f2c0 0001 	movt	r0, #1
   123f4:	f7fe eacc 	blx	10990 <puts@plt>
                    uint16_t nack_nr  = (da->packethi << 8) + da->packetlo;
   123f8:	69bb      	ldr	r3, [r7, #24]
   123fa:	2b00      	cmp	r3, #0
   123fc:	d106      	bne.n	1240c <start_update+0x234>
   123fe:	f644 2024 	movw	r0, #18980	; 0x4a24
   12402:	f2c0 0002 	movt	r0, #2
   12406:	2100      	movs	r1, #0
   12408:	f7fe eabc 	blx	10984 <__ubsan_handle_type_mismatch@plt>
   1240c:	69bb      	ldr	r3, [r7, #24]
   1240e:	791b      	ldrb	r3, [r3, #4]
   12410:	461c      	mov	r4, r3
   12412:	4623      	mov	r3, r4
   12414:	0ddb      	lsrs	r3, r3, #23
   12416:	2b00      	cmp	r3, #0
   12418:	bf14      	ite	ne
   1241a:	2301      	movne	r3, #1
   1241c:	2300      	moveq	r3, #0
   1241e:	b2db      	uxtb	r3, r3
   12420:	2b00      	cmp	r3, #0
   12422:	d008      	beq.n	12436 <start_update+0x25e>
   12424:	4623      	mov	r3, r4
   12426:	f644 1090 	movw	r0, #18832	; 0x4990
   1242a:	f2c0 0002 	movt	r0, #2
   1242e:	4619      	mov	r1, r3
   12430:	2208      	movs	r2, #8
   12432:	f7fe ea96 	blx	10960 <__ubsan_handle_shift_out_of_bounds@plt>
   12436:	b2a3      	uxth	r3, r4
   12438:	021b      	lsls	r3, r3, #8
   1243a:	b29c      	uxth	r4, r3
   1243c:	69bb      	ldr	r3, [r7, #24]
   1243e:	2b00      	cmp	r3, #0
   12440:	d106      	bne.n	12450 <start_update+0x278>
   12442:	f644 203c 	movw	r0, #19004	; 0x4a3c
   12446:	f2c0 0002 	movt	r0, #2
   1244a:	2100      	movs	r1, #0
   1244c:	f7fe ea9a 	blx	10984 <__ubsan_handle_type_mismatch@plt>
   12450:	69bb      	ldr	r3, [r7, #24]
   12452:	795b      	ldrb	r3, [r3, #5]
   12454:	b29b      	uxth	r3, r3
   12456:	4423      	add	r3, r4
   12458:	82fb      	strh	r3, [r7, #22]
                    j = nack_nr;
   1245a:	8afb      	ldrh	r3, [r7, #22]
   1245c:	623b      	str	r3, [r7, #32]
            }
        }

        nanosleep(&ack_timeout, NULL);

        for(j = 0; j < npkts[i]; j++)
   1245e:	6a3b      	ldr	r3, [r7, #32]
   12460:	1c5c      	adds	r4, r3, #1
   12462:	2301      	movs	r3, #1
   12464:	2b00      	cmp	r3, #0
   12466:	db03      	blt.n	12470 <start_update+0x298>
   12468:	6a3b      	ldr	r3, [r7, #32]
   1246a:	429c      	cmp	r4, r3
   1246c:	da0b      	bge.n	12486 <start_update+0x2ae>
   1246e:	e002      	b.n	12476 <start_update+0x29e>
   12470:	6a3b      	ldr	r3, [r7, #32]
   12472:	429c      	cmp	r4, r3
   12474:	dd07      	ble.n	12486 <start_update+0x2ae>
   12476:	f644 2064 	movw	r0, #19044	; 0x4a64
   1247a:	f2c0 0002 	movt	r0, #2
   1247e:	6a39      	ldr	r1, [r7, #32]
   12480:	2201      	movs	r2, #1
   12482:	f7fe ea62 	blx	10948 <__ubsan_handle_add_overflow@plt>
   12486:	623c      	str	r4, [r7, #32]
   12488:	f243 1390 	movw	r3, #12688	; 0x3190
   1248c:	f2c0 0302 	movt	r3, #2
   12490:	6a7a      	ldr	r2, [r7, #36]	; 0x24
   12492:	f833 3012 	ldrh.w	r3, [r3, r2, lsl #1]
   12496:	461a      	mov	r2, r3
   12498:	6a3b      	ldr	r3, [r7, #32]
   1249a:	429a      	cmp	r2, r3
   1249c:	f73f af10 	bgt.w	122c0 <start_update+0xe8>
    int i;
    int j;
    uint8_t retx = 0;
    uint8_t len = 0;
    struct timespec ack_timeout = { .tv_nsec = 20000};
    for ( i = 0; i <  sizeof(npkts)/sizeof(npkts[0]); i++)
   124a0:	6a7b      	ldr	r3, [r7, #36]	; 0x24
   124a2:	1c5c      	adds	r4, r3, #1
   124a4:	2301      	movs	r3, #1
   124a6:	2b00      	cmp	r3, #0
   124a8:	db03      	blt.n	124b2 <start_update+0x2da>
   124aa:	6a7b      	ldr	r3, [r7, #36]	; 0x24
   124ac:	429c      	cmp	r4, r3
   124ae:	da0b      	bge.n	124c8 <start_update+0x2f0>
   124b0:	e002      	b.n	124b8 <start_update+0x2e0>
   124b2:	6a7b      	ldr	r3, [r7, #36]	; 0x24
   124b4:	429c      	cmp	r4, r3
   124b6:	dd07      	ble.n	124c8 <start_update+0x2f0>
   124b8:	f644 2074 	movw	r0, #19060	; 0x4a74
   124bc:	f2c0 0002 	movt	r0, #2
   124c0:	6a79      	ldr	r1, [r7, #36]	; 0x24
   124c2:	2201      	movs	r2, #1
   124c4:	f7fe ea40 	blx	10948 <__ubsan_handle_add_overflow@plt>
   124c8:	627c      	str	r4, [r7, #36]	; 0x24
   124ca:	6a7b      	ldr	r3, [r7, #36]	; 0x24
   124cc:	2b00      	cmp	r3, #0
   124ce:	f43f ae95 	beq.w	121fc <start_update+0x24>
                    j = nack_nr;
                }
            }
        }
    }
    return 0;
   124d2:	2300      	movs	r3, #0
}
   124d4:	4618      	mov	r0, r3
   124d6:	3728      	adds	r7, #40	; 0x28
   124d8:	46bd      	mov	sp, r7
   124da:	bdb0      	pop	{r4, r5, r7, pc}

000124dc <main>:

int main(int argc, char **argv)
{
   124dc:	b590      	push	{r4, r7, lr}
   124de:	b087      	sub	sp, #28
   124e0:	af00      	add	r7, sp, #0
   124e2:	6078      	str	r0, [r7, #4]
   124e4:	6039      	str	r1, [r7, #0]
    int fd;
    fset_t fset = ISM_US;
   124e6:	2301      	movs	r3, #1
   124e8:	617b      	str	r3, [r7, #20]
    uint8_t status;

    if (argc == 2)
   124ea:	687b      	ldr	r3, [r7, #4]
   124ec:	2b02      	cmp	r3, #2
   124ee:	d152      	bne.n	12596 <main+0xba>
    {
        if (!strcmp(argv[1], "US"))
   124f0:	683b      	ldr	r3, [r7, #0]
   124f2:	1d1c      	adds	r4, r3, #4
   124f4:	2c00      	cmp	r4, #0
   124f6:	d106      	bne.n	12506 <main+0x2a>
   124f8:	f644 2094 	movw	r0, #19092	; 0x4a94
   124fc:	f2c0 0002 	movt	r0, #2
   12500:	2100      	movs	r1, #0
   12502:	f7fe ea40 	blx	10984 <__ubsan_handle_type_mismatch@plt>
   12506:	6823      	ldr	r3, [r4, #0]
   12508:	4618      	mov	r0, r3
   1250a:	f642 1158 	movw	r1, #10584	; 0x2958
   1250e:	f2c0 0101 	movt	r1, #1
   12512:	f7fe ea4a 	blx	109a8 <strcmp@plt>
   12516:	4603      	mov	r3, r0
   12518:	2b00      	cmp	r3, #0
   1251a:	d102      	bne.n	12522 <main+0x46>
            fset = ISM_US;
   1251c:	2301      	movs	r3, #1
   1251e:	617b      	str	r3, [r7, #20]
   12520:	e039      	b.n	12596 <main+0xba>
        else if (!strcmp(argv[1], "EU"))
   12522:	683b      	ldr	r3, [r7, #0]
   12524:	1d1c      	adds	r4, r3, #4
   12526:	2c00      	cmp	r4, #0
   12528:	d106      	bne.n	12538 <main+0x5c>
   1252a:	f644 20ac 	movw	r0, #19116	; 0x4aac
   1252e:	f2c0 0002 	movt	r0, #2
   12532:	2100      	movs	r1, #0
   12534:	f7fe ea26 	blx	10984 <__ubsan_handle_type_mismatch@plt>
   12538:	6823      	ldr	r3, [r4, #0]
   1253a:	4618      	mov	r0, r3
   1253c:	f642 115c 	movw	r1, #10588	; 0x295c
   12540:	f2c0 0101 	movt	r1, #1
   12544:	f7fe ea30 	blx	109a8 <strcmp@plt>
   12548:	4603      	mov	r3, r0
   1254a:	2b00      	cmp	r3, #0
   1254c:	d102      	bne.n	12554 <main+0x78>
            fset = ISM_EU;
   1254e:	2300      	movs	r3, #0
   12550:	617b      	str	r3, [r7, #20]
   12552:	e020      	b.n	12596 <main+0xba>
        else if (!strcmp(argv[1], "LF"))
   12554:	683b      	ldr	r3, [r7, #0]
   12556:	1d1c      	adds	r4, r3, #4
   12558:	2c00      	cmp	r4, #0
   1255a:	d106      	bne.n	1256a <main+0x8e>
   1255c:	f644 20c4 	movw	r0, #19140	; 0x4ac4
   12560:	f2c0 0002 	movt	r0, #2
   12564:	2100      	movs	r1, #0
   12566:	f7fe ea0e 	blx	10984 <__ubsan_handle_type_mismatch@plt>
   1256a:	6823      	ldr	r3, [r4, #0]
   1256c:	4618      	mov	r0, r3
   1256e:	f642 1160 	movw	r1, #10592	; 0x2960
   12572:	f2c0 0101 	movt	r1, #1
   12576:	f7fe ea18 	blx	109a8 <strcmp@plt>
   1257a:	4603      	mov	r3, r0
   1257c:	2b00      	cmp	r3, #0
   1257e:	d102      	bne.n	12586 <main+0xaa>
            fset = ISM_LF;
   12580:	2302      	movs	r3, #2
   12582:	617b      	str	r3, [r7, #20]
   12584:	e007      	b.n	12596 <main+0xba>
        else 
        {
            printf("Unspecified Band, defaulting to 902MHz/US band\n");
   12586:	f642 1064 	movw	r0, #10596	; 0x2964
   1258a:	f2c0 0001 	movt	r0, #1
   1258e:	f7fe ea00 	blx	10990 <puts@plt>
            fset = ISM_US;
   12592:	2301      	movs	r3, #1
   12594:	617b      	str	r3, [r7, #20]
        }
    }

    setup_io();
   12596:	f7fe fa83 	bl	10aa0 <setup_io>
    cfg_gpio();
   1259a:	f7ff f821 	bl	115e0 <cfg_gpio>
    fd = open_spi(SPI_DEVNAME);
   1259e:	f242 60fc 	movw	r0, #9980	; 0x26fc
   125a2:	f2c0 0001 	movt	r0, #1
   125a6:	f7fe fae3 	bl	10b70 <open_spi>
   125aa:	60f8      	str	r0, [r7, #12]
    default_spi_config(fd);
   125ac:	68f8      	ldr	r0, [r7, #12]
   125ae:	f7fe fb15 	bl	10bdc <default_spi_config>
    cc1101_initialize(fd, fset);
   125b2:	68f8      	ldr	r0, [r7, #12]
   125b4:	6979      	ldr	r1, [r7, #20]
   125b6:	f7ff fb07 	bl	11bc8 <cc1101_initialize>
    for( int i = 0; i < 0x3e; i++)
   125ba:	2300      	movs	r3, #0
   125bc:	613b      	str	r3, [r7, #16]
   125be:	e027      	b.n	12610 <main+0x134>
    printf("Reg %02x, Val %02x Status %02x\n", i, read_reg(fd, i, &status), status);
   125c0:	693b      	ldr	r3, [r7, #16]
   125c2:	b2da      	uxtb	r2, r3
   125c4:	f107 030b 	add.w	r3, r7, #11
   125c8:	68f8      	ldr	r0, [r7, #12]
   125ca:	4611      	mov	r1, r2
   125cc:	461a      	mov	r2, r3
   125ce:	f7fe fed1 	bl	11374 <read_reg>
   125d2:	4603      	mov	r3, r0
   125d4:	461a      	mov	r2, r3
   125d6:	7afb      	ldrb	r3, [r7, #11]
   125d8:	f642 1094 	movw	r0, #10644	; 0x2994
   125dc:	f2c0 0001 	movt	r0, #1
   125e0:	6939      	ldr	r1, [r7, #16]
   125e2:	f7fe e9b8 	blx	10954 <printf@plt>
    setup_io();
    cfg_gpio();
    fd = open_spi(SPI_DEVNAME);
    default_spi_config(fd);
    cc1101_initialize(fd, fset);
    for( int i = 0; i < 0x3e; i++)
   125e6:	693b      	ldr	r3, [r7, #16]
   125e8:	1c5c      	adds	r4, r3, #1
   125ea:	2301      	movs	r3, #1
   125ec:	2b00      	cmp	r3, #0
   125ee:	db03      	blt.n	125f8 <main+0x11c>
   125f0:	693b      	ldr	r3, [r7, #16]
   125f2:	429c      	cmp	r4, r3
   125f4:	da0b      	bge.n	1260e <main+0x132>
   125f6:	e002      	b.n	125fe <main+0x122>
   125f8:	693b      	ldr	r3, [r7, #16]
   125fa:	429c      	cmp	r4, r3
   125fc:	dd07      	ble.n	1260e <main+0x132>
   125fe:	f644 20dc 	movw	r0, #19164	; 0x4adc
   12602:	f2c0 0002 	movt	r0, #2
   12606:	6939      	ldr	r1, [r7, #16]
   12608:	2201      	movs	r2, #1
   1260a:	f7fe e99e 	blx	10948 <__ubsan_handle_add_overflow@plt>
   1260e:	613c      	str	r4, [r7, #16]
   12610:	693b      	ldr	r3, [r7, #16]
   12612:	2b3d      	cmp	r3, #61	; 0x3d
   12614:	ddd4      	ble.n	125c0 <main+0xe4>
    printf("Reg %02x, Val %02x Status %02x\n", i, read_reg(fd, i, &status), status);
    start_update(fd);
   12616:	68f8      	ldr	r0, [r7, #12]
   12618:	f7ff fdde 	bl	121d8 <start_update>
            fflush(stdout);
            //nanosleep(&sleepval, NULL);
        }
    }
#endif
    close_spi(fd);
   1261c:	68f8      	ldr	r0, [r7, #12]
   1261e:	f7fe fac3 	bl	10ba8 <close_spi>

    return 0;
   12622:	2300      	movs	r3, #0
}
   12624:	4618      	mov	r0, r3
   12626:	371c      	adds	r7, #28
   12628:	46bd      	mov	sp, r7
   1262a:	bd90      	pop	{r4, r7, pc}

0001262c <__libc_csu_init>:
   1262c:	e92d 43f8 	stmdb	sp!, {r3, r4, r5, r6, r7, r8, r9, lr}
   12630:	4607      	mov	r7, r0
   12632:	4e0c      	ldr	r6, [pc, #48]	; (12664 <__libc_csu_init+0x38>)
   12634:	4688      	mov	r8, r1
   12636:	4d0c      	ldr	r5, [pc, #48]	; (12668 <__libc_csu_init+0x3c>)
   12638:	4691      	mov	r9, r2
   1263a:	447e      	add	r6, pc
   1263c:	f7fe e91a 	blx	10874 <_init>
   12640:	447d      	add	r5, pc
   12642:	1b76      	subs	r6, r6, r5
   12644:	10b6      	asrs	r6, r6, #2
   12646:	d00a      	beq.n	1265e <__libc_csu_init+0x32>
   12648:	3d04      	subs	r5, #4
   1264a:	2400      	movs	r4, #0
   1264c:	3401      	adds	r4, #1
   1264e:	f855 3f04 	ldr.w	r3, [r5, #4]!
   12652:	4638      	mov	r0, r7
   12654:	4641      	mov	r1, r8
   12656:	464a      	mov	r2, r9
   12658:	4798      	blx	r3
   1265a:	42b4      	cmp	r4, r6
   1265c:	d1f6      	bne.n	1264c <__libc_csu_init+0x20>
   1265e:	e8bd 83f8 	ldmia.w	sp!, {r3, r4, r5, r6, r7, r8, r9, pc}
   12662:	bf00      	nop
   12664:	000109c6 	.word	0x000109c6
   12668:	000109bc 	.word	0x000109bc

0001266c <__libc_csu_fini>:
   1266c:	4770      	bx	lr
   1266e:	bf00      	nop

Disassembly of section .fini:

00012670 <_fini>:
   12670:	e92d4008 	push	{r3, lr}
   12674:	e8bd8008 	pop	{r3, pc}
